
Output/utloader.elf:     file format elf32-littlearm


Disassembly of section .isr_vector:

08000000 <g_pfnVectors>:
 8000000:	20010000 	andcs	r0, r1, r0
 8000004:	08000bed 	stmdaeq	r0, {r0, r2, r3, r5, r6, r7, r8, r9, fp}
 8000008:	08000245 	stmdaeq	r0, {r0, r2, r6, r9}
 800000c:	08000251 	stmdaeq	r0, {r0, r4, r6, r9}
 8000010:	08000259 	stmdaeq	r0, {r0, r3, r4, r6, r9}
 8000014:	08000261 	stmdaeq	r0, {r0, r5, r6, r9}
 8000018:	08000269 	stmdaeq	r0, {r0, r3, r5, r6, r9}
	...
 800002c:	08000271 	stmdaeq	r0, {r0, r4, r5, r6, r9}
 8000030:	0800027d 	stmdaeq	r0, {r0, r2, r3, r4, r5, r6, r9}
 8000034:	00000000 	andeq	r0, r0, r0
 8000038:	08000289 	stmdaeq	r0, {r0, r3, r7, r9}
 800003c:	08000295 	stmdaeq	r0, {r0, r2, r4, r7, r9}
 8000040:	08000c31 	stmdaeq	r0, {r0, r4, r5, sl, fp}
 8000044:	08000c31 	stmdaeq	r0, {r0, r4, r5, sl, fp}
 8000048:	08000c31 	stmdaeq	r0, {r0, r4, r5, sl, fp}
 800004c:	08000c31 	stmdaeq	r0, {r0, r4, r5, sl, fp}
 8000050:	08000c31 	stmdaeq	r0, {r0, r4, r5, sl, fp}
 8000054:	08000c31 	stmdaeq	r0, {r0, r4, r5, sl, fp}
 8000058:	08000c31 	stmdaeq	r0, {r0, r4, r5, sl, fp}
 800005c:	08000c31 	stmdaeq	r0, {r0, r4, r5, sl, fp}
 8000060:	08000c31 	stmdaeq	r0, {r0, r4, r5, sl, fp}
 8000064:	08000c31 	stmdaeq	r0, {r0, r4, r5, sl, fp}
 8000068:	08000c31 	stmdaeq	r0, {r0, r4, r5, sl, fp}
 800006c:	08000c31 	stmdaeq	r0, {r0, r4, r5, sl, fp}
 8000070:	08000c31 	stmdaeq	r0, {r0, r4, r5, sl, fp}
 8000074:	08000c31 	stmdaeq	r0, {r0, r4, r5, sl, fp}
 8000078:	08000c31 	stmdaeq	r0, {r0, r4, r5, sl, fp}
 800007c:	08000c31 	stmdaeq	r0, {r0, r4, r5, sl, fp}
 8000080:	08000c31 	stmdaeq	r0, {r0, r4, r5, sl, fp}
 8000084:	08000c31 	stmdaeq	r0, {r0, r4, r5, sl, fp}
 8000088:	08000c31 	stmdaeq	r0, {r0, r4, r5, sl, fp}
 800008c:	08000c31 	stmdaeq	r0, {r0, r4, r5, sl, fp}
 8000090:	08000c31 	stmdaeq	r0, {r0, r4, r5, sl, fp}
 8000094:	08000c31 	stmdaeq	r0, {r0, r4, r5, sl, fp}
 8000098:	08000c31 	stmdaeq	r0, {r0, r4, r5, sl, fp}
 800009c:	08000c31 	stmdaeq	r0, {r0, r4, r5, sl, fp}
 80000a0:	08000c31 	stmdaeq	r0, {r0, r4, r5, sl, fp}
 80000a4:	08000c31 	stmdaeq	r0, {r0, r4, r5, sl, fp}
 80000a8:	08000c31 	stmdaeq	r0, {r0, r4, r5, sl, fp}
 80000ac:	08000c31 	stmdaeq	r0, {r0, r4, r5, sl, fp}
 80000b0:	08000c31 	stmdaeq	r0, {r0, r4, r5, sl, fp}
 80000b4:	08000c31 	stmdaeq	r0, {r0, r4, r5, sl, fp}
 80000b8:	08000c31 	stmdaeq	r0, {r0, r4, r5, sl, fp}
 80000bc:	08000c31 	stmdaeq	r0, {r0, r4, r5, sl, fp}
 80000c0:	08000c31 	stmdaeq	r0, {r0, r4, r5, sl, fp}
 80000c4:	08000c31 	stmdaeq	r0, {r0, r4, r5, sl, fp}
 80000c8:	08000c31 	stmdaeq	r0, {r0, r4, r5, sl, fp}
 80000cc:	08000c31 	stmdaeq	r0, {r0, r4, r5, sl, fp}
 80000d0:	08000c31 	stmdaeq	r0, {r0, r4, r5, sl, fp}
 80000d4:	08000c31 	stmdaeq	r0, {r0, r4, r5, sl, fp}
 80000d8:	08000c31 	stmdaeq	r0, {r0, r4, r5, sl, fp}
 80000dc:	08000c31 	stmdaeq	r0, {r0, r4, r5, sl, fp}
 80000e0:	08000c31 	stmdaeq	r0, {r0, r4, r5, sl, fp}
 80000e4:	08000c31 	stmdaeq	r0, {r0, r4, r5, sl, fp}
 80000e8:	08000c31 	stmdaeq	r0, {r0, r4, r5, sl, fp}
 80000ec:	08000c31 	stmdaeq	r0, {r0, r4, r5, sl, fp}
 80000f0:	08000c31 	stmdaeq	r0, {r0, r4, r5, sl, fp}
 80000f4:	08000c31 	stmdaeq	r0, {r0, r4, r5, sl, fp}
 80000f8:	08000c31 	stmdaeq	r0, {r0, r4, r5, sl, fp}
 80000fc:	08000c31 	stmdaeq	r0, {r0, r4, r5, sl, fp}
 8000100:	08000c31 	stmdaeq	r0, {r0, r4, r5, sl, fp}
 8000104:	08000c31 	stmdaeq	r0, {r0, r4, r5, sl, fp}
 8000108:	08000c31 	stmdaeq	r0, {r0, r4, r5, sl, fp}
 800010c:	08000c31 	stmdaeq	r0, {r0, r4, r5, sl, fp}
 8000110:	08000c31 	stmdaeq	r0, {r0, r4, r5, sl, fp}
 8000114:	08000c31 	stmdaeq	r0, {r0, r4, r5, sl, fp}
 8000118:	08000c31 	stmdaeq	r0, {r0, r4, r5, sl, fp}
 800011c:	08000c31 	stmdaeq	r0, {r0, r4, r5, sl, fp}
 8000120:	08000c31 	stmdaeq	r0, {r0, r4, r5, sl, fp}
 8000124:	08000c31 	stmdaeq	r0, {r0, r4, r5, sl, fp}
 8000128:	08000c31 	stmdaeq	r0, {r0, r4, r5, sl, fp}
 800012c:	08000c31 	stmdaeq	r0, {r0, r4, r5, sl, fp}
	...
 80001e0:	f1e0f85f 			; <UNDEFINED> instruction: 0xf1e0f85f

Disassembly of section .text:

080001e4 <main>:
#define RCC_BASE      (AHBPERIPH_BASE + 0x1000)
/*RCC的AHB1时钟使能寄存器地址,强制转换成指针*/
#define RCC_APB2ENR      *(unsigned int*)(RCC_BASE+0x18)

int main(void)
{	
 80001e4:	b580      	push	{r7, lr}
 80001e6:	af00      	add	r7, sp, #0
        printf("%d %d \n", g_1, g_2);
    }   
#endif

    // 开启GPIOB 端口时钟
    RCC_APB2ENR |= (1<<3);
 80001e8:	4a11      	ldr	r2, [pc, #68]	; (8000230 <main+0x4c>)
 80001ea:	4b11      	ldr	r3, [pc, #68]	; (8000230 <main+0x4c>)
 80001ec:	681b      	ldr	r3, [r3, #0]
 80001ee:	f043 0308 	orr.w	r3, r3, #8
 80001f2:	6013      	str	r3, [r2, #0]

    //清空控制PB0的端口位
    GPIOB_CRL &= ~( 0x0F<< (4*0));  
 80001f4:	4a0f      	ldr	r2, [pc, #60]	; (8000234 <main+0x50>)
 80001f6:	4b0f      	ldr	r3, [pc, #60]	; (8000234 <main+0x50>)
 80001f8:	681b      	ldr	r3, [r3, #0]
 80001fa:	f023 030f 	bic.w	r3, r3, #15
 80001fe:	6013      	str	r3, [r2, #0]
    // 配置PB0为通用推挽输出，速度为10M
    GPIOB_CRL |= (1<<4*0);
 8000200:	4a0c      	ldr	r2, [pc, #48]	; (8000234 <main+0x50>)
 8000202:	4b0c      	ldr	r3, [pc, #48]	; (8000234 <main+0x50>)
 8000204:	681b      	ldr	r3, [r3, #0]
 8000206:	f043 0301 	orr.w	r3, r3, #1
 800020a:	6013      	str	r3, [r2, #0]

    // PB0 输出 低电平
    GPIOB_ODR &= ~(1<<0);
 800020c:	4a0a      	ldr	r2, [pc, #40]	; (8000238 <main+0x54>)
 800020e:	4b0a      	ldr	r3, [pc, #40]	; (8000238 <main+0x54>)
 8000210:	681b      	ldr	r3, [r3, #0]
 8000212:	f023 0301 	bic.w	r3, r3, #1
 8000216:	6013      	str	r3, [r2, #0]
    
    USART_Config();
 8000218:	f000 f85a 	bl	80002d0 <USART_Config>

    Usart_SendString( DEBUG_USARTx,"test1111111111\n");
 800021c:	4907      	ldr	r1, [pc, #28]	; (800023c <main+0x58>)
 800021e:	4808      	ldr	r0, [pc, #32]	; (8000240 <main+0x5c>)
 8000220:	f000 f8b8 	bl	8000394 <Usart_SendString>

    while(1) {
        Usart_SendString( DEBUG_USARTx,"test1111111111\n");
 8000224:	4905      	ldr	r1, [pc, #20]	; (800023c <main+0x58>)
 8000226:	4806      	ldr	r0, [pc, #24]	; (8000240 <main+0x5c>)
 8000228:	f000 f8b4 	bl	8000394 <Usart_SendString>
    }
 800022c:	e7fa      	b.n	8000224 <main+0x40>
 800022e:	bf00      	nop
 8000230:	40021018 	andmi	r1, r2, r8, lsl r0
 8000234:	40010c00 	andmi	r0, r1, r0, lsl #24
 8000238:	40010c0c 	andmi	r0, r1, ip, lsl #24
 800023c:	08000c34 	stmdaeq	r0, {r2, r4, r5, sl, fp}
 8000240:	40013800 	andmi	r3, r1, r0, lsl #16

08000244 <NMI_Handler>:
#include "stm32f10x_it.h" 


 
void NMI_Handler(void)
{
 8000244:	b480      	push	{r7}
 8000246:	af00      	add	r7, sp, #0
}
 8000248:	bf00      	nop
 800024a:	46bd      	mov	sp, r7
 800024c:	bc80      	pop	{r7}
 800024e:	4770      	bx	lr

08000250 <HardFault_Handler>:
 
void HardFault_Handler(void)
{
 8000250:	b480      	push	{r7}
 8000252:	af00      	add	r7, sp, #0
  /* Go to infinite loop when Hard Fault exception occurs */
  while (1)
  {
  }
 8000254:	e7fe      	b.n	8000254 <HardFault_Handler+0x4>
 8000256:	bf00      	nop

08000258 <MemManage_Handler>:
}
 
void MemManage_Handler(void)
{
 8000258:	b480      	push	{r7}
 800025a:	af00      	add	r7, sp, #0
  /* Go to infinite loop when Memory Manage exception occurs */
  while (1)
  {
  }
 800025c:	e7fe      	b.n	800025c <MemManage_Handler+0x4>
 800025e:	bf00      	nop

08000260 <BusFault_Handler>:
}

 
void BusFault_Handler(void)
{
 8000260:	b480      	push	{r7}
 8000262:	af00      	add	r7, sp, #0
  /* Go to infinite loop when Bus Fault exception occurs */
  while (1)
  {
  }
 8000264:	e7fe      	b.n	8000264 <BusFault_Handler+0x4>
 8000266:	bf00      	nop

08000268 <UsageFault_Handler>:
}
 
void UsageFault_Handler(void)
{
 8000268:	b480      	push	{r7}
 800026a:	af00      	add	r7, sp, #0
  /* Go to infinite loop when Usage Fault exception occurs */
  while (1)
  {
  }
 800026c:	e7fe      	b.n	800026c <UsageFault_Handler+0x4>
 800026e:	bf00      	nop

08000270 <SVC_Handler>:
}
 
void SVC_Handler(void)
{
 8000270:	b480      	push	{r7}
 8000272:	af00      	add	r7, sp, #0
}
 8000274:	bf00      	nop
 8000276:	46bd      	mov	sp, r7
 8000278:	bc80      	pop	{r7}
 800027a:	4770      	bx	lr

0800027c <DebugMon_Handler>:
 
void DebugMon_Handler(void)
{
 800027c:	b480      	push	{r7}
 800027e:	af00      	add	r7, sp, #0
}
 8000280:	bf00      	nop
 8000282:	46bd      	mov	sp, r7
 8000284:	bc80      	pop	{r7}
 8000286:	4770      	bx	lr

08000288 <PendSV_Handler>:
 
void PendSV_Handler(void)
{
 8000288:	b480      	push	{r7}
 800028a:	af00      	add	r7, sp, #0
}
 800028c:	bf00      	nop
 800028e:	46bd      	mov	sp, r7
 8000290:	bc80      	pop	{r7}
 8000292:	4770      	bx	lr

08000294 <SysTick_Handler>:
 
void SysTick_Handler(void)
{
 8000294:	b480      	push	{r7}
 8000296:	af00      	add	r7, sp, #0
}
 8000298:	bf00      	nop
 800029a:	46bd      	mov	sp, r7
 800029c:	bc80      	pop	{r7}
 800029e:	4770      	bx	lr

080002a0 <NVIC_Configuration>:
  * @brief  配置嵌套向量中断控制器NVIC
  * @param  无
  * @retval 无
  */
static void NVIC_Configuration(void)
{
 80002a0:	b580      	push	{r7, lr}
 80002a2:	b082      	sub	sp, #8
 80002a4:	af00      	add	r7, sp, #0
  NVIC_InitTypeDef NVIC_InitStructure;
  
  /* 嵌套向量中断控制器组选择 */
  NVIC_PriorityGroupConfig(NVIC_PriorityGroup_2);
 80002a6:	f44f 60a0 	mov.w	r0, #1280	; 0x500
 80002aa:	f000 fadb 	bl	8000864 <NVIC_PriorityGroupConfig>
  
  /* 配置USART为中断源 */
  NVIC_InitStructure.NVIC_IRQChannel = DEBUG_USART_IRQ;
 80002ae:	2325      	movs	r3, #37	; 0x25
 80002b0:	713b      	strb	r3, [r7, #4]
  /* 抢断优先级*/
  NVIC_InitStructure.NVIC_IRQChannelPreemptionPriority = 1;
 80002b2:	2301      	movs	r3, #1
 80002b4:	717b      	strb	r3, [r7, #5]
  /* 子优先级 */
  NVIC_InitStructure.NVIC_IRQChannelSubPriority = 1;
 80002b6:	2301      	movs	r3, #1
 80002b8:	71bb      	strb	r3, [r7, #6]
  /* 使能中断 */
  NVIC_InitStructure.NVIC_IRQChannelCmd = ENABLE;
 80002ba:	2301      	movs	r3, #1
 80002bc:	71fb      	strb	r3, [r7, #7]
  /* 初始化配置NVIC */
  NVIC_Init(&NVIC_InitStructure);
 80002be:	1d3b      	adds	r3, r7, #4
 80002c0:	4618      	mov	r0, r3
 80002c2:	f000 fae1 	bl	8000888 <NVIC_Init>
}
 80002c6:	bf00      	nop
 80002c8:	3708      	adds	r7, #8
 80002ca:	46bd      	mov	sp, r7
 80002cc:	bd80      	pop	{r7, pc}
 80002ce:	bf00      	nop

080002d0 <USART_Config>:
  * @brief  USART GPIO 配置,工作参数配置
  * @param  无
  * @retval 无
  */
void USART_Config(void)
{
 80002d0:	b580      	push	{r7, lr}
 80002d2:	b086      	sub	sp, #24
 80002d4:	af00      	add	r7, sp, #0
	GPIO_InitTypeDef GPIO_InitStructure;
	USART_InitTypeDef USART_InitStructure;

	// 打开串口GPIO的时钟
	DEBUG_USART_GPIO_APBxClkCmd(DEBUG_USART_GPIO_CLK, ENABLE);
 80002d6:	2101      	movs	r1, #1
 80002d8:	2004      	movs	r0, #4
 80002da:	f000 faa5 	bl	8000828 <RCC_APB2PeriphClockCmd>
	
	// 打开串口外设的时钟
	DEBUG_USART_APBxClkCmd(DEBUG_USART_CLK, ENABLE);
 80002de:	2101      	movs	r1, #1
 80002e0:	f44f 4080 	mov.w	r0, #16384	; 0x4000
 80002e4:	f000 faa0 	bl	8000828 <RCC_APB2PeriphClockCmd>

	// 将USART Tx的GPIO配置为推挽复用模式
	GPIO_InitStructure.GPIO_Pin = DEBUG_USART_TX_GPIO_PIN;
 80002e8:	f44f 7300 	mov.w	r3, #512	; 0x200
 80002ec:	82bb      	strh	r3, [r7, #20]
	GPIO_InitStructure.GPIO_Mode = GPIO_Mode_AF_PP;
 80002ee:	2318      	movs	r3, #24
 80002f0:	75fb      	strb	r3, [r7, #23]
	GPIO_InitStructure.GPIO_Speed = GPIO_Speed_50MHz;
 80002f2:	2303      	movs	r3, #3
 80002f4:	75bb      	strb	r3, [r7, #22]
	GPIO_Init(DEBUG_USART_TX_GPIO_PORT, &GPIO_InitStructure);
 80002f6:	f107 0314 	add.w	r3, r7, #20
 80002fa:	4619      	mov	r1, r3
 80002fc:	4817      	ldr	r0, [pc, #92]	; (800035c <USART_Config+0x8c>)
 80002fe:	f000 f927 	bl	8000550 <GPIO_Init>

  // 将USART Rx的GPIO配置为浮空输入模式
	GPIO_InitStructure.GPIO_Pin = DEBUG_USART_RX_GPIO_PIN;
 8000302:	f44f 6380 	mov.w	r3, #1024	; 0x400
 8000306:	82bb      	strh	r3, [r7, #20]
	GPIO_InitStructure.GPIO_Mode = GPIO_Mode_IN_FLOATING;
 8000308:	2304      	movs	r3, #4
 800030a:	75fb      	strb	r3, [r7, #23]
	GPIO_Init(DEBUG_USART_RX_GPIO_PORT, &GPIO_InitStructure);
 800030c:	f107 0314 	add.w	r3, r7, #20
 8000310:	4619      	mov	r1, r3
 8000312:	4812      	ldr	r0, [pc, #72]	; (800035c <USART_Config+0x8c>)
 8000314:	f000 f91c 	bl	8000550 <GPIO_Init>
	
	// 配置串口的工作参数
	// 配置波特率
	USART_InitStructure.USART_BaudRate = DEBUG_USART_BAUDRATE;
 8000318:	f44f 33e1 	mov.w	r3, #115200	; 0x1c200
 800031c:	607b      	str	r3, [r7, #4]
	// 配置 针数据字长
	USART_InitStructure.USART_WordLength = USART_WordLength_8b;
 800031e:	2300      	movs	r3, #0
 8000320:	813b      	strh	r3, [r7, #8]
	// 配置停止位
	USART_InitStructure.USART_StopBits = USART_StopBits_1;
 8000322:	2300      	movs	r3, #0
 8000324:	817b      	strh	r3, [r7, #10]
	// 配置校验位
	USART_InitStructure.USART_Parity = USART_Parity_No ;
 8000326:	2300      	movs	r3, #0
 8000328:	81bb      	strh	r3, [r7, #12]
	// 配置硬件流控制
	USART_InitStructure.USART_HardwareFlowControl = 
 800032a:	2300      	movs	r3, #0
 800032c:	823b      	strh	r3, [r7, #16]
	USART_HardwareFlowControl_None;
	// 配置工作模式，收发一起
	USART_InitStructure.USART_Mode = USART_Mode_Rx | USART_Mode_Tx;
 800032e:	230c      	movs	r3, #12
 8000330:	81fb      	strh	r3, [r7, #14]
	// 完成串口的初始化配置
	USART_Init(DEBUG_USARTx, &USART_InitStructure);
 8000332:	1d3b      	adds	r3, r7, #4
 8000334:	4619      	mov	r1, r3
 8000336:	480a      	ldr	r0, [pc, #40]	; (8000360 <USART_Config+0x90>)
 8000338:	f000 fb08 	bl	800094c <USART_Init>
	
	// 串口中断优先级配置
	NVIC_Configuration();
 800033c:	f7ff ffb0 	bl	80002a0 <NVIC_Configuration>
	
	// 使能串口接收中断
	USART_ITConfig(DEBUG_USARTx, USART_IT_RXNE, ENABLE);	
 8000340:	2201      	movs	r2, #1
 8000342:	f240 5125 	movw	r1, #1317	; 0x525
 8000346:	4806      	ldr	r0, [pc, #24]	; (8000360 <USART_Config+0x90>)
 8000348:	f000 fbda 	bl	8000b00 <USART_ITConfig>
	
	// 使能串口
	USART_Cmd(DEBUG_USARTx, ENABLE);	    
 800034c:	2101      	movs	r1, #1
 800034e:	4804      	ldr	r0, [pc, #16]	; (8000360 <USART_Config+0x90>)
 8000350:	f000 fbb6 	bl	8000ac0 <USART_Cmd>
}
 8000354:	bf00      	nop
 8000356:	3718      	adds	r7, #24
 8000358:	46bd      	mov	sp, r7
 800035a:	bd80      	pop	{r7, pc}
 800035c:	40010800 	andmi	r0, r1, r0, lsl #16
 8000360:	40013800 	andmi	r3, r1, r0, lsl #16

08000364 <Usart_SendByte>:

/*****************  发送一个字节 **********************/
void Usart_SendByte( USART_TypeDef * pUSARTx, uint8_t ch)
{
 8000364:	b580      	push	{r7, lr}
 8000366:	b082      	sub	sp, #8
 8000368:	af00      	add	r7, sp, #0
 800036a:	6078      	str	r0, [r7, #4]
 800036c:	460b      	mov	r3, r1
 800036e:	70fb      	strb	r3, [r7, #3]
	/* 发送一个字节数据到USART */
	USART_SendData(pUSARTx,ch);
 8000370:	78fb      	ldrb	r3, [r7, #3]
 8000372:	b29b      	uxth	r3, r3
 8000374:	4619      	mov	r1, r3
 8000376:	6878      	ldr	r0, [r7, #4]
 8000378:	f000 fc0a 	bl	8000b90 <USART_SendData>
		
	/* 等待发送数据寄存器为空 */
	while (USART_GetFlagStatus(pUSARTx, USART_FLAG_TXE) == RESET);	
 800037c:	bf00      	nop
 800037e:	2180      	movs	r1, #128	; 0x80
 8000380:	6878      	ldr	r0, [r7, #4]
 8000382:	f000 fc17 	bl	8000bb4 <USART_GetFlagStatus>
 8000386:	4603      	mov	r3, r0
 8000388:	2b00      	cmp	r3, #0
 800038a:	d0f8      	beq.n	800037e <Usart_SendByte+0x1a>
}
 800038c:	bf00      	nop
 800038e:	3708      	adds	r7, #8
 8000390:	46bd      	mov	sp, r7
 8000392:	bd80      	pop	{r7, pc}

08000394 <Usart_SendString>:
	while(USART_GetFlagStatus(pUSARTx,USART_FLAG_TC)==RESET);
}

/*****************  发送字符串 **********************/
void Usart_SendString( USART_TypeDef * pUSARTx, char *str)
{
 8000394:	b580      	push	{r7, lr}
 8000396:	b084      	sub	sp, #16
 8000398:	af00      	add	r7, sp, #0
 800039a:	6078      	str	r0, [r7, #4]
 800039c:	6039      	str	r1, [r7, #0]
	unsigned int k=0;
 800039e:	2300      	movs	r3, #0
 80003a0:	60fb      	str	r3, [r7, #12]
  do 
  {
      Usart_SendByte( pUSARTx, *(str + k) );
 80003a2:	683a      	ldr	r2, [r7, #0]
 80003a4:	68fb      	ldr	r3, [r7, #12]
 80003a6:	4413      	add	r3, r2
 80003a8:	781b      	ldrb	r3, [r3, #0]
 80003aa:	4619      	mov	r1, r3
 80003ac:	6878      	ldr	r0, [r7, #4]
 80003ae:	f7ff ffd9 	bl	8000364 <Usart_SendByte>
      k++;
 80003b2:	68fb      	ldr	r3, [r7, #12]
 80003b4:	3301      	adds	r3, #1
 80003b6:	60fb      	str	r3, [r7, #12]
  } while(*(str + k)!='\0');
 80003b8:	683a      	ldr	r2, [r7, #0]
 80003ba:	68fb      	ldr	r3, [r7, #12]
 80003bc:	4413      	add	r3, r2
 80003be:	781b      	ldrb	r3, [r3, #0]
 80003c0:	2b00      	cmp	r3, #0
 80003c2:	d1ee      	bne.n	80003a2 <Usart_SendString+0xe>
  
  /* 等待发送完成 */
  while(USART_GetFlagStatus(pUSARTx,USART_FLAG_TC)==RESET)
 80003c4:	bf00      	nop
 80003c6:	2140      	movs	r1, #64	; 0x40
 80003c8:	6878      	ldr	r0, [r7, #4]
 80003ca:	f000 fbf3 	bl	8000bb4 <USART_GetFlagStatus>
 80003ce:	4603      	mov	r3, r0
 80003d0:	2b00      	cmp	r3, #0
 80003d2:	d0f8      	beq.n	80003c6 <Usart_SendString+0x32>
  {}
}
 80003d4:	bf00      	nop
 80003d6:	3710      	adds	r7, #16
 80003d8:	46bd      	mov	sp, r7
 80003da:	bd80      	pop	{r7, pc}

080003dc <SystemInit>:
  * @note   This function should be used only after reset.
  * @param  None
  * @retval None
  */
void SystemInit (void)
{
 80003dc:	b580      	push	{r7, lr}
 80003de:	af00      	add	r7, sp, #0
  /* Reset the RCC clock configuration to the default reset state(for debug purpose) */
  /* Set HSION bit */
  RCC->CR |= (uint32_t)0x00000001;
 80003e0:	4a15      	ldr	r2, [pc, #84]	; (8000438 <SystemInit+0x5c>)
 80003e2:	4b15      	ldr	r3, [pc, #84]	; (8000438 <SystemInit+0x5c>)
 80003e4:	681b      	ldr	r3, [r3, #0]
 80003e6:	f043 0301 	orr.w	r3, r3, #1
 80003ea:	6013      	str	r3, [r2, #0]

  /* Reset SW, HPRE, PPRE1, PPRE2, ADCPRE and MCO bits */
#ifndef STM32F10X_CL
  RCC->CFGR &= (uint32_t)0xF8FF0000;
 80003ec:	4912      	ldr	r1, [pc, #72]	; (8000438 <SystemInit+0x5c>)
 80003ee:	4b12      	ldr	r3, [pc, #72]	; (8000438 <SystemInit+0x5c>)
 80003f0:	685a      	ldr	r2, [r3, #4]
 80003f2:	4b12      	ldr	r3, [pc, #72]	; (800043c <SystemInit+0x60>)
 80003f4:	4013      	ands	r3, r2
 80003f6:	604b      	str	r3, [r1, #4]
#else
  RCC->CFGR &= (uint32_t)0xF0FF0000;
#endif /* STM32F10X_CL */   
  
  /* Reset HSEON, CSSON and PLLON bits */
  RCC->CR &= (uint32_t)0xFEF6FFFF;
 80003f8:	4a0f      	ldr	r2, [pc, #60]	; (8000438 <SystemInit+0x5c>)
 80003fa:	4b0f      	ldr	r3, [pc, #60]	; (8000438 <SystemInit+0x5c>)
 80003fc:	681b      	ldr	r3, [r3, #0]
 80003fe:	f023 7384 	bic.w	r3, r3, #17301504	; 0x1080000
 8000402:	f423 3380 	bic.w	r3, r3, #65536	; 0x10000
 8000406:	6013      	str	r3, [r2, #0]

  /* Reset HSEBYP bit */
  RCC->CR &= (uint32_t)0xFFFBFFFF;
 8000408:	4a0b      	ldr	r2, [pc, #44]	; (8000438 <SystemInit+0x5c>)
 800040a:	4b0b      	ldr	r3, [pc, #44]	; (8000438 <SystemInit+0x5c>)
 800040c:	681b      	ldr	r3, [r3, #0]
 800040e:	f423 2380 	bic.w	r3, r3, #262144	; 0x40000
 8000412:	6013      	str	r3, [r2, #0]

  /* Reset PLLSRC, PLLXTPRE, PLLMUL and USBPRE/OTGFSPRE bits */
  RCC->CFGR &= (uint32_t)0xFF80FFFF;
 8000414:	4a08      	ldr	r2, [pc, #32]	; (8000438 <SystemInit+0x5c>)
 8000416:	4b08      	ldr	r3, [pc, #32]	; (8000438 <SystemInit+0x5c>)
 8000418:	685b      	ldr	r3, [r3, #4]
 800041a:	f423 03fe 	bic.w	r3, r3, #8323072	; 0x7f0000
 800041e:	6053      	str	r3, [r2, #4]

  /* Reset CFGR2 register */
  RCC->CFGR2 = 0x00000000;      
#else
  /* Disable all interrupts and clear pending bits  */
  RCC->CIR = 0x009F0000;
 8000420:	4b05      	ldr	r3, [pc, #20]	; (8000438 <SystemInit+0x5c>)
 8000422:	f44f 021f 	mov.w	r2, #10420224	; 0x9f0000
 8000426:	609a      	str	r2, [r3, #8]
  #endif /* DATA_IN_ExtSRAM */
#endif 

  /* Configure the System clock frequency, HCLK, PCLK2 and PCLK1 prescalers */
  /* Configure the Flash Latency cycles and enable prefetch buffer */
  SetSysClock();
 8000428:	f000 f80c 	bl	8000444 <SetSysClock>

#ifdef VECT_TAB_SRAM
  SCB->VTOR = SRAM_BASE | VECT_TAB_OFFSET; /* Vector Table Relocation in Internal SRAM. */
#else
  SCB->VTOR = FLASH_BASE | VECT_TAB_OFFSET; /* Vector Table Relocation in Internal FLASH. */
 800042c:	4b04      	ldr	r3, [pc, #16]	; (8000440 <SystemInit+0x64>)
 800042e:	f04f 6200 	mov.w	r2, #134217728	; 0x8000000
 8000432:	609a      	str	r2, [r3, #8]
#endif 
}
 8000434:	bf00      	nop
 8000436:	bd80      	pop	{r7, pc}
 8000438:	40021000 	andmi	r1, r2, r0
 800043c:	f8ff0000 			; <UNDEFINED> instruction: 0xf8ff0000
 8000440:	e000ed00 	and	lr, r0, r0, lsl #26

08000444 <SetSysClock>:
  * @brief  Configures the System clock frequency, HCLK, PCLK2 and PCLK1 prescalers.
  * @param  None
  * @retval None
  */
static void SetSysClock(void)
{
 8000444:	b580      	push	{r7, lr}
 8000446:	af00      	add	r7, sp, #0
#elif defined SYSCLK_FREQ_48MHz
  SetSysClockTo48();
#elif defined SYSCLK_FREQ_56MHz
  SetSysClockTo56();  
#elif defined SYSCLK_FREQ_72MHz
  SetSysClockTo72();
 8000448:	f000 f802 	bl	8000450 <SetSysClockTo72>
#endif
 
 /* If none of the define above is enabled, the HSI is used as System clock
    source (default after reset) */ 
}
 800044c:	bf00      	nop
 800044e:	bd80      	pop	{r7, pc}

08000450 <SetSysClockTo72>:
  * @note   This function should be used only after reset.
  * @param  None
  * @retval None
  */
static void SetSysClockTo72(void)
{
 8000450:	b480      	push	{r7}
 8000452:	b083      	sub	sp, #12
 8000454:	af00      	add	r7, sp, #0
  __IO uint32_t StartUpCounter = 0, HSEStatus = 0;
 8000456:	2300      	movs	r3, #0
 8000458:	607b      	str	r3, [r7, #4]
 800045a:	2300      	movs	r3, #0
 800045c:	603b      	str	r3, [r7, #0]
  
  /* SYSCLK, HCLK, PCLK2 and PCLK1 configuration ---------------------------*/    
  /* Enable HSE */    
  RCC->CR |= ((uint32_t)RCC_CR_HSEON);
 800045e:	4a3a      	ldr	r2, [pc, #232]	; (8000548 <SetSysClockTo72+0xf8>)
 8000460:	4b39      	ldr	r3, [pc, #228]	; (8000548 <SetSysClockTo72+0xf8>)
 8000462:	681b      	ldr	r3, [r3, #0]
 8000464:	f443 3380 	orr.w	r3, r3, #65536	; 0x10000
 8000468:	6013      	str	r3, [r2, #0]
 
  /* Wait till HSE is ready and if Time out is reached exit */
  do
  {
    HSEStatus = RCC->CR & RCC_CR_HSERDY;
 800046a:	4b37      	ldr	r3, [pc, #220]	; (8000548 <SetSysClockTo72+0xf8>)
 800046c:	681b      	ldr	r3, [r3, #0]
 800046e:	f403 3300 	and.w	r3, r3, #131072	; 0x20000
 8000472:	603b      	str	r3, [r7, #0]
    StartUpCounter++;  
 8000474:	687b      	ldr	r3, [r7, #4]
 8000476:	3301      	adds	r3, #1
 8000478:	607b      	str	r3, [r7, #4]
  } while((HSEStatus == 0) && (StartUpCounter != HSE_STARTUP_TIMEOUT));
 800047a:	683b      	ldr	r3, [r7, #0]
 800047c:	2b00      	cmp	r3, #0
 800047e:	d103      	bne.n	8000488 <SetSysClockTo72+0x38>
 8000480:	687b      	ldr	r3, [r7, #4]
 8000482:	f5b3 6fa0 	cmp.w	r3, #1280	; 0x500
 8000486:	d1f0      	bne.n	800046a <SetSysClockTo72+0x1a>

  if ((RCC->CR & RCC_CR_HSERDY) != RESET)
 8000488:	4b2f      	ldr	r3, [pc, #188]	; (8000548 <SetSysClockTo72+0xf8>)
 800048a:	681b      	ldr	r3, [r3, #0]
 800048c:	f403 3300 	and.w	r3, r3, #131072	; 0x20000
 8000490:	2b00      	cmp	r3, #0
 8000492:	d002      	beq.n	800049a <SetSysClockTo72+0x4a>
  {
    HSEStatus = (uint32_t)0x01;
 8000494:	2301      	movs	r3, #1
 8000496:	603b      	str	r3, [r7, #0]
 8000498:	e001      	b.n	800049e <SetSysClockTo72+0x4e>
  }
  else
  {
    HSEStatus = (uint32_t)0x00;
 800049a:	2300      	movs	r3, #0
 800049c:	603b      	str	r3, [r7, #0]
  }  

  if (HSEStatus == (uint32_t)0x01)
 800049e:	683b      	ldr	r3, [r7, #0]
 80004a0:	2b01      	cmp	r3, #1
 80004a2:	d14b      	bne.n	800053c <SetSysClockTo72+0xec>
  {
    /* Enable Prefetch Buffer */
    FLASH->ACR |= FLASH_ACR_PRFTBE;
 80004a4:	4a29      	ldr	r2, [pc, #164]	; (800054c <SetSysClockTo72+0xfc>)
 80004a6:	4b29      	ldr	r3, [pc, #164]	; (800054c <SetSysClockTo72+0xfc>)
 80004a8:	681b      	ldr	r3, [r3, #0]
 80004aa:	f043 0310 	orr.w	r3, r3, #16
 80004ae:	6013      	str	r3, [r2, #0]

    /* Flash 2 wait state */
    FLASH->ACR &= (uint32_t)((uint32_t)~FLASH_ACR_LATENCY);
 80004b0:	4a26      	ldr	r2, [pc, #152]	; (800054c <SetSysClockTo72+0xfc>)
 80004b2:	4b26      	ldr	r3, [pc, #152]	; (800054c <SetSysClockTo72+0xfc>)
 80004b4:	681b      	ldr	r3, [r3, #0]
 80004b6:	f023 0303 	bic.w	r3, r3, #3
 80004ba:	6013      	str	r3, [r2, #0]
    FLASH->ACR |= (uint32_t)FLASH_ACR_LATENCY_2;    
 80004bc:	4a23      	ldr	r2, [pc, #140]	; (800054c <SetSysClockTo72+0xfc>)
 80004be:	4b23      	ldr	r3, [pc, #140]	; (800054c <SetSysClockTo72+0xfc>)
 80004c0:	681b      	ldr	r3, [r3, #0]
 80004c2:	f043 0302 	orr.w	r3, r3, #2
 80004c6:	6013      	str	r3, [r2, #0]

 
    /* HCLK = SYSCLK */
    RCC->CFGR |= (uint32_t)RCC_CFGR_HPRE_DIV1;
 80004c8:	4a1f      	ldr	r2, [pc, #124]	; (8000548 <SetSysClockTo72+0xf8>)
 80004ca:	4b1f      	ldr	r3, [pc, #124]	; (8000548 <SetSysClockTo72+0xf8>)
 80004cc:	685b      	ldr	r3, [r3, #4]
 80004ce:	6053      	str	r3, [r2, #4]
      
    /* PCLK2 = HCLK */
    RCC->CFGR |= (uint32_t)RCC_CFGR_PPRE2_DIV1;
 80004d0:	4a1d      	ldr	r2, [pc, #116]	; (8000548 <SetSysClockTo72+0xf8>)
 80004d2:	4b1d      	ldr	r3, [pc, #116]	; (8000548 <SetSysClockTo72+0xf8>)
 80004d4:	685b      	ldr	r3, [r3, #4]
 80004d6:	6053      	str	r3, [r2, #4]
    
    /* PCLK1 = HCLK */
    RCC->CFGR |= (uint32_t)RCC_CFGR_PPRE1_DIV2;
 80004d8:	4a1b      	ldr	r2, [pc, #108]	; (8000548 <SetSysClockTo72+0xf8>)
 80004da:	4b1b      	ldr	r3, [pc, #108]	; (8000548 <SetSysClockTo72+0xf8>)
 80004dc:	685b      	ldr	r3, [r3, #4]
 80004de:	f443 6380 	orr.w	r3, r3, #1024	; 0x400
 80004e2:	6053      	str	r3, [r2, #4]
    RCC->CFGR &= (uint32_t)~(RCC_CFGR_PLLXTPRE | RCC_CFGR_PLLSRC | RCC_CFGR_PLLMULL);
    RCC->CFGR |= (uint32_t)(RCC_CFGR_PLLXTPRE_PREDIV1 | RCC_CFGR_PLLSRC_PREDIV1 | 
                            RCC_CFGR_PLLMULL9); 
#else    
    /*  PLL configuration: PLLCLK = HSE * 9 = 72 MHz */
    RCC->CFGR &= (uint32_t)((uint32_t)~(RCC_CFGR_PLLSRC | RCC_CFGR_PLLXTPRE |
 80004e4:	4a18      	ldr	r2, [pc, #96]	; (8000548 <SetSysClockTo72+0xf8>)
 80004e6:	4b18      	ldr	r3, [pc, #96]	; (8000548 <SetSysClockTo72+0xf8>)
 80004e8:	685b      	ldr	r3, [r3, #4]
 80004ea:	f423 137c 	bic.w	r3, r3, #4128768	; 0x3f0000
 80004ee:	6053      	str	r3, [r2, #4]
                                        RCC_CFGR_PLLMULL));
    RCC->CFGR |= (uint32_t)(RCC_CFGR_PLLSRC_HSE | RCC_CFGR_PLLMULL9);
 80004f0:	4a15      	ldr	r2, [pc, #84]	; (8000548 <SetSysClockTo72+0xf8>)
 80004f2:	4b15      	ldr	r3, [pc, #84]	; (8000548 <SetSysClockTo72+0xf8>)
 80004f4:	685b      	ldr	r3, [r3, #4]
 80004f6:	f443 13e8 	orr.w	r3, r3, #1900544	; 0x1d0000
 80004fa:	6053      	str	r3, [r2, #4]
#endif /* STM32F10X_CL */

    /* Enable PLL */
    RCC->CR |= RCC_CR_PLLON;
 80004fc:	4a12      	ldr	r2, [pc, #72]	; (8000548 <SetSysClockTo72+0xf8>)
 80004fe:	4b12      	ldr	r3, [pc, #72]	; (8000548 <SetSysClockTo72+0xf8>)
 8000500:	681b      	ldr	r3, [r3, #0]
 8000502:	f043 7380 	orr.w	r3, r3, #16777216	; 0x1000000
 8000506:	6013      	str	r3, [r2, #0]

    /* Wait till PLL is ready */
    while((RCC->CR & RCC_CR_PLLRDY) == 0)
 8000508:	bf00      	nop
 800050a:	4b0f      	ldr	r3, [pc, #60]	; (8000548 <SetSysClockTo72+0xf8>)
 800050c:	681b      	ldr	r3, [r3, #0]
 800050e:	f003 7300 	and.w	r3, r3, #33554432	; 0x2000000
 8000512:	2b00      	cmp	r3, #0
 8000514:	d0f9      	beq.n	800050a <SetSysClockTo72+0xba>
    {
    }
    
    /* Select PLL as system clock source */
    RCC->CFGR &= (uint32_t)((uint32_t)~(RCC_CFGR_SW));
 8000516:	4a0c      	ldr	r2, [pc, #48]	; (8000548 <SetSysClockTo72+0xf8>)
 8000518:	4b0b      	ldr	r3, [pc, #44]	; (8000548 <SetSysClockTo72+0xf8>)
 800051a:	685b      	ldr	r3, [r3, #4]
 800051c:	f023 0303 	bic.w	r3, r3, #3
 8000520:	6053      	str	r3, [r2, #4]
    RCC->CFGR |= (uint32_t)RCC_CFGR_SW_PLL;    
 8000522:	4a09      	ldr	r2, [pc, #36]	; (8000548 <SetSysClockTo72+0xf8>)
 8000524:	4b08      	ldr	r3, [pc, #32]	; (8000548 <SetSysClockTo72+0xf8>)
 8000526:	685b      	ldr	r3, [r3, #4]
 8000528:	f043 0302 	orr.w	r3, r3, #2
 800052c:	6053      	str	r3, [r2, #4]

    /* Wait till PLL is used as system clock source */
    while ((RCC->CFGR & (uint32_t)RCC_CFGR_SWS) != (uint32_t)0x08)
 800052e:	bf00      	nop
 8000530:	4b05      	ldr	r3, [pc, #20]	; (8000548 <SetSysClockTo72+0xf8>)
 8000532:	685b      	ldr	r3, [r3, #4]
 8000534:	f003 030c 	and.w	r3, r3, #12
 8000538:	2b08      	cmp	r3, #8
 800053a:	d1f9      	bne.n	8000530 <SetSysClockTo72+0xe0>
  }
  else
  { /* If HSE fails to start-up, the application will have wrong clock 
         configuration. User can add here some code to deal with this error */
  }
}
 800053c:	bf00      	nop
 800053e:	370c      	adds	r7, #12
 8000540:	46bd      	mov	sp, r7
 8000542:	bc80      	pop	{r7}
 8000544:	4770      	bx	lr
 8000546:	bf00      	nop
 8000548:	40021000 	andmi	r1, r2, r0
 800054c:	40022000 	andmi	r2, r2, r0

08000550 <GPIO_Init>:
  * @param  GPIO_InitStruct: pointer to a GPIO_InitTypeDef structure that
  *         contains the configuration information for the specified GPIO peripheral.
  * @retval None
  */
void GPIO_Init(GPIO_TypeDef* GPIOx, GPIO_InitTypeDef* GPIO_InitStruct)
{
 8000550:	b480      	push	{r7}
 8000552:	b089      	sub	sp, #36	; 0x24
 8000554:	af00      	add	r7, sp, #0
 8000556:	6078      	str	r0, [r7, #4]
 8000558:	6039      	str	r1, [r7, #0]
  uint32_t currentmode = 0x00, currentpin = 0x00, pinpos = 0x00, pos = 0x00;
 800055a:	2300      	movs	r3, #0
 800055c:	61fb      	str	r3, [r7, #28]
 800055e:	2300      	movs	r3, #0
 8000560:	613b      	str	r3, [r7, #16]
 8000562:	2300      	movs	r3, #0
 8000564:	61bb      	str	r3, [r7, #24]
 8000566:	2300      	movs	r3, #0
 8000568:	60fb      	str	r3, [r7, #12]
  uint32_t tmpreg = 0x00, pinmask = 0x00;
 800056a:	2300      	movs	r3, #0
 800056c:	617b      	str	r3, [r7, #20]
 800056e:	2300      	movs	r3, #0
 8000570:	60bb      	str	r3, [r7, #8]
  assert_param(IS_GPIO_ALL_PERIPH(GPIOx));
  assert_param(IS_GPIO_MODE(GPIO_InitStruct->GPIO_Mode));
  assert_param(IS_GPIO_PIN(GPIO_InitStruct->GPIO_Pin));  
  
/*---------------------------- GPIO Mode Configuration -----------------------*/
  currentmode = ((uint32_t)GPIO_InitStruct->GPIO_Mode) & ((uint32_t)0x0F);
 8000572:	683b      	ldr	r3, [r7, #0]
 8000574:	78db      	ldrb	r3, [r3, #3]
 8000576:	f003 030f 	and.w	r3, r3, #15
 800057a:	61fb      	str	r3, [r7, #28]
  if ((((uint32_t)GPIO_InitStruct->GPIO_Mode) & ((uint32_t)0x10)) != 0x00)
 800057c:	683b      	ldr	r3, [r7, #0]
 800057e:	78db      	ldrb	r3, [r3, #3]
 8000580:	f003 0310 	and.w	r3, r3, #16
 8000584:	2b00      	cmp	r3, #0
 8000586:	d005      	beq.n	8000594 <GPIO_Init+0x44>
  { 
    /* Check the parameters */
    assert_param(IS_GPIO_SPEED(GPIO_InitStruct->GPIO_Speed));
    /* Output mode */
    currentmode |= (uint32_t)GPIO_InitStruct->GPIO_Speed;
 8000588:	683b      	ldr	r3, [r7, #0]
 800058a:	789b      	ldrb	r3, [r3, #2]
 800058c:	461a      	mov	r2, r3
 800058e:	69fb      	ldr	r3, [r7, #28]
 8000590:	4313      	orrs	r3, r2
 8000592:	61fb      	str	r3, [r7, #28]
  }
/*---------------------------- GPIO CRL Configuration ------------------------*/
  /* Configure the eight low port pins */
  if (((uint32_t)GPIO_InitStruct->GPIO_Pin & ((uint32_t)0x00FF)) != 0x00)
 8000594:	683b      	ldr	r3, [r7, #0]
 8000596:	881b      	ldrh	r3, [r3, #0]
 8000598:	b2db      	uxtb	r3, r3
 800059a:	2b00      	cmp	r3, #0
 800059c:	d044      	beq.n	8000628 <GPIO_Init+0xd8>
  {
    tmpreg = GPIOx->CRL;
 800059e:	687b      	ldr	r3, [r7, #4]
 80005a0:	681b      	ldr	r3, [r3, #0]
 80005a2:	617b      	str	r3, [r7, #20]
    for (pinpos = 0x00; pinpos < 0x08; pinpos++)
 80005a4:	2300      	movs	r3, #0
 80005a6:	61bb      	str	r3, [r7, #24]
 80005a8:	e038      	b.n	800061c <GPIO_Init+0xcc>
    {
      pos = ((uint32_t)0x01) << pinpos;
 80005aa:	2201      	movs	r2, #1
 80005ac:	69bb      	ldr	r3, [r7, #24]
 80005ae:	fa02 f303 	lsl.w	r3, r2, r3
 80005b2:	60fb      	str	r3, [r7, #12]
      /* Get the port pins position */
      currentpin = (GPIO_InitStruct->GPIO_Pin) & pos;
 80005b4:	683b      	ldr	r3, [r7, #0]
 80005b6:	881b      	ldrh	r3, [r3, #0]
 80005b8:	461a      	mov	r2, r3
 80005ba:	68fb      	ldr	r3, [r7, #12]
 80005bc:	4013      	ands	r3, r2
 80005be:	613b      	str	r3, [r7, #16]
      if (currentpin == pos)
 80005c0:	693a      	ldr	r2, [r7, #16]
 80005c2:	68fb      	ldr	r3, [r7, #12]
 80005c4:	429a      	cmp	r2, r3
 80005c6:	d126      	bne.n	8000616 <GPIO_Init+0xc6>
      {
        pos = pinpos << 2;
 80005c8:	69bb      	ldr	r3, [r7, #24]
 80005ca:	009b      	lsls	r3, r3, #2
 80005cc:	60fb      	str	r3, [r7, #12]
        /* Clear the corresponding low control register bits */
        pinmask = ((uint32_t)0x0F) << pos;
 80005ce:	220f      	movs	r2, #15
 80005d0:	68fb      	ldr	r3, [r7, #12]
 80005d2:	fa02 f303 	lsl.w	r3, r2, r3
 80005d6:	60bb      	str	r3, [r7, #8]
        tmpreg &= ~pinmask;
 80005d8:	68bb      	ldr	r3, [r7, #8]
 80005da:	43db      	mvns	r3, r3
 80005dc:	697a      	ldr	r2, [r7, #20]
 80005de:	4013      	ands	r3, r2
 80005e0:	617b      	str	r3, [r7, #20]
        /* Write the mode configuration in the corresponding bits */
        tmpreg |= (currentmode << pos);
 80005e2:	69fa      	ldr	r2, [r7, #28]
 80005e4:	68fb      	ldr	r3, [r7, #12]
 80005e6:	fa02 f303 	lsl.w	r3, r2, r3
 80005ea:	697a      	ldr	r2, [r7, #20]
 80005ec:	4313      	orrs	r3, r2
 80005ee:	617b      	str	r3, [r7, #20]
        /* Reset the corresponding ODR bit */
        if (GPIO_InitStruct->GPIO_Mode == GPIO_Mode_IPD)
 80005f0:	683b      	ldr	r3, [r7, #0]
 80005f2:	78db      	ldrb	r3, [r3, #3]
 80005f4:	2b28      	cmp	r3, #40	; 0x28
 80005f6:	d105      	bne.n	8000604 <GPIO_Init+0xb4>
        {
          GPIOx->BRR = (((uint32_t)0x01) << pinpos);
 80005f8:	2201      	movs	r2, #1
 80005fa:	69bb      	ldr	r3, [r7, #24]
 80005fc:	409a      	lsls	r2, r3
 80005fe:	687b      	ldr	r3, [r7, #4]
 8000600:	615a      	str	r2, [r3, #20]
 8000602:	e008      	b.n	8000616 <GPIO_Init+0xc6>
        }
        else
        {
          /* Set the corresponding ODR bit */
          if (GPIO_InitStruct->GPIO_Mode == GPIO_Mode_IPU)
 8000604:	683b      	ldr	r3, [r7, #0]
 8000606:	78db      	ldrb	r3, [r3, #3]
 8000608:	2b48      	cmp	r3, #72	; 0x48
 800060a:	d104      	bne.n	8000616 <GPIO_Init+0xc6>
          {
            GPIOx->BSRR = (((uint32_t)0x01) << pinpos);
 800060c:	2201      	movs	r2, #1
 800060e:	69bb      	ldr	r3, [r7, #24]
 8000610:	409a      	lsls	r2, r3
 8000612:	687b      	ldr	r3, [r7, #4]
 8000614:	611a      	str	r2, [r3, #16]
/*---------------------------- GPIO CRL Configuration ------------------------*/
  /* Configure the eight low port pins */
  if (((uint32_t)GPIO_InitStruct->GPIO_Pin & ((uint32_t)0x00FF)) != 0x00)
  {
    tmpreg = GPIOx->CRL;
    for (pinpos = 0x00; pinpos < 0x08; pinpos++)
 8000616:	69bb      	ldr	r3, [r7, #24]
 8000618:	3301      	adds	r3, #1
 800061a:	61bb      	str	r3, [r7, #24]
 800061c:	69bb      	ldr	r3, [r7, #24]
 800061e:	2b07      	cmp	r3, #7
 8000620:	d9c3      	bls.n	80005aa <GPIO_Init+0x5a>
            GPIOx->BSRR = (((uint32_t)0x01) << pinpos);
          }
        }
      }
    }
    GPIOx->CRL = tmpreg;
 8000622:	687b      	ldr	r3, [r7, #4]
 8000624:	697a      	ldr	r2, [r7, #20]
 8000626:	601a      	str	r2, [r3, #0]
  }
/*---------------------------- GPIO CRH Configuration ------------------------*/
  /* Configure the eight high port pins */
  if (GPIO_InitStruct->GPIO_Pin > 0x00FF)
 8000628:	683b      	ldr	r3, [r7, #0]
 800062a:	881b      	ldrh	r3, [r3, #0]
 800062c:	2bff      	cmp	r3, #255	; 0xff
 800062e:	d946      	bls.n	80006be <GPIO_Init+0x16e>
  {
    tmpreg = GPIOx->CRH;
 8000630:	687b      	ldr	r3, [r7, #4]
 8000632:	685b      	ldr	r3, [r3, #4]
 8000634:	617b      	str	r3, [r7, #20]
    for (pinpos = 0x00; pinpos < 0x08; pinpos++)
 8000636:	2300      	movs	r3, #0
 8000638:	61bb      	str	r3, [r7, #24]
 800063a:	e03a      	b.n	80006b2 <GPIO_Init+0x162>
    {
      pos = (((uint32_t)0x01) << (pinpos + 0x08));
 800063c:	69bb      	ldr	r3, [r7, #24]
 800063e:	3308      	adds	r3, #8
 8000640:	2201      	movs	r2, #1
 8000642:	fa02 f303 	lsl.w	r3, r2, r3
 8000646:	60fb      	str	r3, [r7, #12]
      /* Get the port pins position */
      currentpin = ((GPIO_InitStruct->GPIO_Pin) & pos);
 8000648:	683b      	ldr	r3, [r7, #0]
 800064a:	881b      	ldrh	r3, [r3, #0]
 800064c:	461a      	mov	r2, r3
 800064e:	68fb      	ldr	r3, [r7, #12]
 8000650:	4013      	ands	r3, r2
 8000652:	613b      	str	r3, [r7, #16]
      if (currentpin == pos)
 8000654:	693a      	ldr	r2, [r7, #16]
 8000656:	68fb      	ldr	r3, [r7, #12]
 8000658:	429a      	cmp	r2, r3
 800065a:	d127      	bne.n	80006ac <GPIO_Init+0x15c>
      {
        pos = pinpos << 2;
 800065c:	69bb      	ldr	r3, [r7, #24]
 800065e:	009b      	lsls	r3, r3, #2
 8000660:	60fb      	str	r3, [r7, #12]
        /* Clear the corresponding high control register bits */
        pinmask = ((uint32_t)0x0F) << pos;
 8000662:	220f      	movs	r2, #15
 8000664:	68fb      	ldr	r3, [r7, #12]
 8000666:	fa02 f303 	lsl.w	r3, r2, r3
 800066a:	60bb      	str	r3, [r7, #8]
        tmpreg &= ~pinmask;
 800066c:	68bb      	ldr	r3, [r7, #8]
 800066e:	43db      	mvns	r3, r3
 8000670:	697a      	ldr	r2, [r7, #20]
 8000672:	4013      	ands	r3, r2
 8000674:	617b      	str	r3, [r7, #20]
        /* Write the mode configuration in the corresponding bits */
        tmpreg |= (currentmode << pos);
 8000676:	69fa      	ldr	r2, [r7, #28]
 8000678:	68fb      	ldr	r3, [r7, #12]
 800067a:	fa02 f303 	lsl.w	r3, r2, r3
 800067e:	697a      	ldr	r2, [r7, #20]
 8000680:	4313      	orrs	r3, r2
 8000682:	617b      	str	r3, [r7, #20]
        /* Reset the corresponding ODR bit */
        if (GPIO_InitStruct->GPIO_Mode == GPIO_Mode_IPD)
 8000684:	683b      	ldr	r3, [r7, #0]
 8000686:	78db      	ldrb	r3, [r3, #3]
 8000688:	2b28      	cmp	r3, #40	; 0x28
 800068a:	d105      	bne.n	8000698 <GPIO_Init+0x148>
        {
          GPIOx->BRR = (((uint32_t)0x01) << (pinpos + 0x08));
 800068c:	69bb      	ldr	r3, [r7, #24]
 800068e:	3308      	adds	r3, #8
 8000690:	2201      	movs	r2, #1
 8000692:	409a      	lsls	r2, r3
 8000694:	687b      	ldr	r3, [r7, #4]
 8000696:	615a      	str	r2, [r3, #20]
        }
        /* Set the corresponding ODR bit */
        if (GPIO_InitStruct->GPIO_Mode == GPIO_Mode_IPU)
 8000698:	683b      	ldr	r3, [r7, #0]
 800069a:	78db      	ldrb	r3, [r3, #3]
 800069c:	2b48      	cmp	r3, #72	; 0x48
 800069e:	d105      	bne.n	80006ac <GPIO_Init+0x15c>
        {
          GPIOx->BSRR = (((uint32_t)0x01) << (pinpos + 0x08));
 80006a0:	69bb      	ldr	r3, [r7, #24]
 80006a2:	3308      	adds	r3, #8
 80006a4:	2201      	movs	r2, #1
 80006a6:	409a      	lsls	r2, r3
 80006a8:	687b      	ldr	r3, [r7, #4]
 80006aa:	611a      	str	r2, [r3, #16]
/*---------------------------- GPIO CRH Configuration ------------------------*/
  /* Configure the eight high port pins */
  if (GPIO_InitStruct->GPIO_Pin > 0x00FF)
  {
    tmpreg = GPIOx->CRH;
    for (pinpos = 0x00; pinpos < 0x08; pinpos++)
 80006ac:	69bb      	ldr	r3, [r7, #24]
 80006ae:	3301      	adds	r3, #1
 80006b0:	61bb      	str	r3, [r7, #24]
 80006b2:	69bb      	ldr	r3, [r7, #24]
 80006b4:	2b07      	cmp	r3, #7
 80006b6:	d9c1      	bls.n	800063c <GPIO_Init+0xec>
        {
          GPIOx->BSRR = (((uint32_t)0x01) << (pinpos + 0x08));
        }
      }
    }
    GPIOx->CRH = tmpreg;
 80006b8:	687b      	ldr	r3, [r7, #4]
 80006ba:	697a      	ldr	r2, [r7, #20]
 80006bc:	605a      	str	r2, [r3, #4]
  }
}
 80006be:	bf00      	nop
 80006c0:	3724      	adds	r7, #36	; 0x24
 80006c2:	46bd      	mov	sp, r7
 80006c4:	bc80      	pop	{r7}
 80006c6:	4770      	bx	lr

080006c8 <RCC_GetClocksFreq>:
  * @note   The result of this function could be not correct when using 
  *         fractional value for HSE crystal.  
  * @retval None
  */
void RCC_GetClocksFreq(RCC_ClocksTypeDef* RCC_Clocks)
{
 80006c8:	b480      	push	{r7}
 80006ca:	b087      	sub	sp, #28
 80006cc:	af00      	add	r7, sp, #0
 80006ce:	6078      	str	r0, [r7, #4]
  uint32_t tmp = 0, pllmull = 0, pllsource = 0, presc = 0;
 80006d0:	2300      	movs	r3, #0
 80006d2:	617b      	str	r3, [r7, #20]
 80006d4:	2300      	movs	r3, #0
 80006d6:	613b      	str	r3, [r7, #16]
 80006d8:	2300      	movs	r3, #0
 80006da:	60fb      	str	r3, [r7, #12]
 80006dc:	2300      	movs	r3, #0
 80006de:	60bb      	str	r3, [r7, #8]
#if defined (STM32F10X_LD_VL) || defined (STM32F10X_MD_VL) || defined (STM32F10X_HD_VL)
  uint32_t prediv1factor = 0;
#endif
    
  /* Get SYSCLK source -------------------------------------------------------*/
  tmp = RCC->CFGR & CFGR_SWS_Mask;
 80006e0:	4b4c      	ldr	r3, [pc, #304]	; (8000814 <RCC_GetClocksFreq+0x14c>)
 80006e2:	685b      	ldr	r3, [r3, #4]
 80006e4:	f003 030c 	and.w	r3, r3, #12
 80006e8:	617b      	str	r3, [r7, #20]
  
  switch (tmp)
 80006ea:	697b      	ldr	r3, [r7, #20]
 80006ec:	2b04      	cmp	r3, #4
 80006ee:	d007      	beq.n	8000700 <RCC_GetClocksFreq+0x38>
 80006f0:	2b08      	cmp	r3, #8
 80006f2:	d009      	beq.n	8000708 <RCC_GetClocksFreq+0x40>
 80006f4:	2b00      	cmp	r3, #0
 80006f6:	d133      	bne.n	8000760 <RCC_GetClocksFreq+0x98>
  {
    case 0x00:  /* HSI used as system clock */
      RCC_Clocks->SYSCLK_Frequency = HSI_VALUE;
 80006f8:	687b      	ldr	r3, [r7, #4]
 80006fa:	4a47      	ldr	r2, [pc, #284]	; (8000818 <RCC_GetClocksFreq+0x150>)
 80006fc:	601a      	str	r2, [r3, #0]
      break;
 80006fe:	e033      	b.n	8000768 <RCC_GetClocksFreq+0xa0>
    case 0x04:  /* HSE used as system clock */
      RCC_Clocks->SYSCLK_Frequency = HSE_VALUE;
 8000700:	687b      	ldr	r3, [r7, #4]
 8000702:	4a45      	ldr	r2, [pc, #276]	; (8000818 <RCC_GetClocksFreq+0x150>)
 8000704:	601a      	str	r2, [r3, #0]
      break;
 8000706:	e02f      	b.n	8000768 <RCC_GetClocksFreq+0xa0>
    case 0x08:  /* PLL used as system clock */

      /* Get PLL clock source and multiplication factor ----------------------*/
      pllmull = RCC->CFGR & CFGR_PLLMull_Mask;
 8000708:	4b42      	ldr	r3, [pc, #264]	; (8000814 <RCC_GetClocksFreq+0x14c>)
 800070a:	685b      	ldr	r3, [r3, #4]
 800070c:	f403 1370 	and.w	r3, r3, #3932160	; 0x3c0000
 8000710:	613b      	str	r3, [r7, #16]
      pllsource = RCC->CFGR & CFGR_PLLSRC_Mask;
 8000712:	4b40      	ldr	r3, [pc, #256]	; (8000814 <RCC_GetClocksFreq+0x14c>)
 8000714:	685b      	ldr	r3, [r3, #4]
 8000716:	f403 3380 	and.w	r3, r3, #65536	; 0x10000
 800071a:	60fb      	str	r3, [r7, #12]
      
#ifndef STM32F10X_CL      
      pllmull = ( pllmull >> 18) + 2;
 800071c:	693b      	ldr	r3, [r7, #16]
 800071e:	0c9b      	lsrs	r3, r3, #18
 8000720:	3302      	adds	r3, #2
 8000722:	613b      	str	r3, [r7, #16]
      
      if (pllsource == 0x00)
 8000724:	68fb      	ldr	r3, [r7, #12]
 8000726:	2b00      	cmp	r3, #0
 8000728:	d106      	bne.n	8000738 <RCC_GetClocksFreq+0x70>
      {/* HSI oscillator clock divided by 2 selected as PLL clock entry */
        RCC_Clocks->SYSCLK_Frequency = (HSI_VALUE >> 1) * pllmull;
 800072a:	693b      	ldr	r3, [r7, #16]
 800072c:	4a3b      	ldr	r2, [pc, #236]	; (800081c <RCC_GetClocksFreq+0x154>)
 800072e:	fb02 f203 	mul.w	r2, r2, r3
 8000732:	687b      	ldr	r3, [r7, #4]
 8000734:	601a      	str	r2, [r3, #0]
          pll2mull = ((RCC->CFGR2 & CFGR2_PLL2MUL) >> 8 ) + 2; 
          RCC_Clocks->SYSCLK_Frequency = (((HSE_VALUE / prediv2factor) * pll2mull) / prediv1factor) * pllmull;                         
        }
      }
#endif /* STM32F10X_CL */ 
      break;
 8000736:	e017      	b.n	8000768 <RCC_GetClocksFreq+0xa0>
       prediv1factor = (RCC->CFGR2 & CFGR2_PREDIV1) + 1;
       /* HSE oscillator clock selected as PREDIV1 clock entry */
       RCC_Clocks->SYSCLK_Frequency = (HSE_VALUE / prediv1factor) * pllmull; 
 #else
        /* HSE selected as PLL clock entry */
        if ((RCC->CFGR & CFGR_PLLXTPRE_Mask) != (uint32_t)RESET)
 8000738:	4b36      	ldr	r3, [pc, #216]	; (8000814 <RCC_GetClocksFreq+0x14c>)
 800073a:	685b      	ldr	r3, [r3, #4]
 800073c:	f403 3300 	and.w	r3, r3, #131072	; 0x20000
 8000740:	2b00      	cmp	r3, #0
 8000742:	d006      	beq.n	8000752 <RCC_GetClocksFreq+0x8a>
        {/* HSE oscillator clock divided by 2 */
          RCC_Clocks->SYSCLK_Frequency = (HSE_VALUE >> 1) * pllmull;
 8000744:	693b      	ldr	r3, [r7, #16]
 8000746:	4a35      	ldr	r2, [pc, #212]	; (800081c <RCC_GetClocksFreq+0x154>)
 8000748:	fb02 f203 	mul.w	r2, r2, r3
 800074c:	687b      	ldr	r3, [r7, #4]
 800074e:	601a      	str	r2, [r3, #0]
          pll2mull = ((RCC->CFGR2 & CFGR2_PLL2MUL) >> 8 ) + 2; 
          RCC_Clocks->SYSCLK_Frequency = (((HSE_VALUE / prediv2factor) * pll2mull) / prediv1factor) * pllmull;                         
        }
      }
#endif /* STM32F10X_CL */ 
      break;
 8000750:	e00a      	b.n	8000768 <RCC_GetClocksFreq+0xa0>
        {/* HSE oscillator clock divided by 2 */
          RCC_Clocks->SYSCLK_Frequency = (HSE_VALUE >> 1) * pllmull;
        }
        else
        {
          RCC_Clocks->SYSCLK_Frequency = HSE_VALUE * pllmull;
 8000752:	693b      	ldr	r3, [r7, #16]
 8000754:	4a30      	ldr	r2, [pc, #192]	; (8000818 <RCC_GetClocksFreq+0x150>)
 8000756:	fb02 f203 	mul.w	r2, r2, r3
 800075a:	687b      	ldr	r3, [r7, #4]
 800075c:	601a      	str	r2, [r3, #0]
          pll2mull = ((RCC->CFGR2 & CFGR2_PLL2MUL) >> 8 ) + 2; 
          RCC_Clocks->SYSCLK_Frequency = (((HSE_VALUE / prediv2factor) * pll2mull) / prediv1factor) * pllmull;                         
        }
      }
#endif /* STM32F10X_CL */ 
      break;
 800075e:	e003      	b.n	8000768 <RCC_GetClocksFreq+0xa0>

    default:
      RCC_Clocks->SYSCLK_Frequency = HSI_VALUE;
 8000760:	687b      	ldr	r3, [r7, #4]
 8000762:	4a2d      	ldr	r2, [pc, #180]	; (8000818 <RCC_GetClocksFreq+0x150>)
 8000764:	601a      	str	r2, [r3, #0]
      break;
 8000766:	bf00      	nop
  }

  /* Compute HCLK, PCLK1, PCLK2 and ADCCLK clocks frequencies ----------------*/
  /* Get HCLK prescaler */
  tmp = RCC->CFGR & CFGR_HPRE_Set_Mask;
 8000768:	4b2a      	ldr	r3, [pc, #168]	; (8000814 <RCC_GetClocksFreq+0x14c>)
 800076a:	685b      	ldr	r3, [r3, #4]
 800076c:	f003 03f0 	and.w	r3, r3, #240	; 0xf0
 8000770:	617b      	str	r3, [r7, #20]
  tmp = tmp >> 4;
 8000772:	697b      	ldr	r3, [r7, #20]
 8000774:	091b      	lsrs	r3, r3, #4
 8000776:	617b      	str	r3, [r7, #20]
  presc = APBAHBPrescTable[tmp];
 8000778:	4a29      	ldr	r2, [pc, #164]	; (8000820 <RCC_GetClocksFreq+0x158>)
 800077a:	697b      	ldr	r3, [r7, #20]
 800077c:	4413      	add	r3, r2
 800077e:	781b      	ldrb	r3, [r3, #0]
 8000780:	b2db      	uxtb	r3, r3
 8000782:	60bb      	str	r3, [r7, #8]
  /* HCLK clock frequency */
  RCC_Clocks->HCLK_Frequency = RCC_Clocks->SYSCLK_Frequency >> presc;
 8000784:	687b      	ldr	r3, [r7, #4]
 8000786:	681a      	ldr	r2, [r3, #0]
 8000788:	68bb      	ldr	r3, [r7, #8]
 800078a:	40da      	lsrs	r2, r3
 800078c:	687b      	ldr	r3, [r7, #4]
 800078e:	605a      	str	r2, [r3, #4]
  /* Get PCLK1 prescaler */
  tmp = RCC->CFGR & CFGR_PPRE1_Set_Mask;
 8000790:	4b20      	ldr	r3, [pc, #128]	; (8000814 <RCC_GetClocksFreq+0x14c>)
 8000792:	685b      	ldr	r3, [r3, #4]
 8000794:	f403 63e0 	and.w	r3, r3, #1792	; 0x700
 8000798:	617b      	str	r3, [r7, #20]
  tmp = tmp >> 8;
 800079a:	697b      	ldr	r3, [r7, #20]
 800079c:	0a1b      	lsrs	r3, r3, #8
 800079e:	617b      	str	r3, [r7, #20]
  presc = APBAHBPrescTable[tmp];
 80007a0:	4a1f      	ldr	r2, [pc, #124]	; (8000820 <RCC_GetClocksFreq+0x158>)
 80007a2:	697b      	ldr	r3, [r7, #20]
 80007a4:	4413      	add	r3, r2
 80007a6:	781b      	ldrb	r3, [r3, #0]
 80007a8:	b2db      	uxtb	r3, r3
 80007aa:	60bb      	str	r3, [r7, #8]
  /* PCLK1 clock frequency */
  RCC_Clocks->PCLK1_Frequency = RCC_Clocks->HCLK_Frequency >> presc;
 80007ac:	687b      	ldr	r3, [r7, #4]
 80007ae:	685a      	ldr	r2, [r3, #4]
 80007b0:	68bb      	ldr	r3, [r7, #8]
 80007b2:	40da      	lsrs	r2, r3
 80007b4:	687b      	ldr	r3, [r7, #4]
 80007b6:	609a      	str	r2, [r3, #8]
  /* Get PCLK2 prescaler */
  tmp = RCC->CFGR & CFGR_PPRE2_Set_Mask;
 80007b8:	4b16      	ldr	r3, [pc, #88]	; (8000814 <RCC_GetClocksFreq+0x14c>)
 80007ba:	685b      	ldr	r3, [r3, #4]
 80007bc:	f403 5360 	and.w	r3, r3, #14336	; 0x3800
 80007c0:	617b      	str	r3, [r7, #20]
  tmp = tmp >> 11;
 80007c2:	697b      	ldr	r3, [r7, #20]
 80007c4:	0adb      	lsrs	r3, r3, #11
 80007c6:	617b      	str	r3, [r7, #20]
  presc = APBAHBPrescTable[tmp];
 80007c8:	4a15      	ldr	r2, [pc, #84]	; (8000820 <RCC_GetClocksFreq+0x158>)
 80007ca:	697b      	ldr	r3, [r7, #20]
 80007cc:	4413      	add	r3, r2
 80007ce:	781b      	ldrb	r3, [r3, #0]
 80007d0:	b2db      	uxtb	r3, r3
 80007d2:	60bb      	str	r3, [r7, #8]
  /* PCLK2 clock frequency */
  RCC_Clocks->PCLK2_Frequency = RCC_Clocks->HCLK_Frequency >> presc;
 80007d4:	687b      	ldr	r3, [r7, #4]
 80007d6:	685a      	ldr	r2, [r3, #4]
 80007d8:	68bb      	ldr	r3, [r7, #8]
 80007da:	40da      	lsrs	r2, r3
 80007dc:	687b      	ldr	r3, [r7, #4]
 80007de:	60da      	str	r2, [r3, #12]
  /* Get ADCCLK prescaler */
  tmp = RCC->CFGR & CFGR_ADCPRE_Set_Mask;
 80007e0:	4b0c      	ldr	r3, [pc, #48]	; (8000814 <RCC_GetClocksFreq+0x14c>)
 80007e2:	685b      	ldr	r3, [r3, #4]
 80007e4:	f403 4340 	and.w	r3, r3, #49152	; 0xc000
 80007e8:	617b      	str	r3, [r7, #20]
  tmp = tmp >> 14;
 80007ea:	697b      	ldr	r3, [r7, #20]
 80007ec:	0b9b      	lsrs	r3, r3, #14
 80007ee:	617b      	str	r3, [r7, #20]
  presc = ADCPrescTable[tmp];
 80007f0:	4a0c      	ldr	r2, [pc, #48]	; (8000824 <RCC_GetClocksFreq+0x15c>)
 80007f2:	697b      	ldr	r3, [r7, #20]
 80007f4:	4413      	add	r3, r2
 80007f6:	781b      	ldrb	r3, [r3, #0]
 80007f8:	b2db      	uxtb	r3, r3
 80007fa:	60bb      	str	r3, [r7, #8]
  /* ADCCLK clock frequency */
  RCC_Clocks->ADCCLK_Frequency = RCC_Clocks->PCLK2_Frequency / presc;
 80007fc:	687b      	ldr	r3, [r7, #4]
 80007fe:	68da      	ldr	r2, [r3, #12]
 8000800:	68bb      	ldr	r3, [r7, #8]
 8000802:	fbb2 f2f3 	udiv	r2, r2, r3
 8000806:	687b      	ldr	r3, [r7, #4]
 8000808:	611a      	str	r2, [r3, #16]
}
 800080a:	bf00      	nop
 800080c:	371c      	adds	r7, #28
 800080e:	46bd      	mov	sp, r7
 8000810:	bc80      	pop	{r7}
 8000812:	4770      	bx	lr
 8000814:	40021000 	andmi	r1, r2, r0
 8000818:	007a1200 	rsbseq	r1, sl, r0, lsl #4
 800081c:	003d0900 	eorseq	r0, sp, r0, lsl #18
 8000820:	20000000 	andcs	r0, r0, r0
 8000824:	20000010 	andcs	r0, r0, r0, lsl r0

08000828 <RCC_APB2PeriphClockCmd>:
  * @param  NewState: new state of the specified peripheral clock.
  *   This parameter can be: ENABLE or DISABLE.
  * @retval None
  */
void RCC_APB2PeriphClockCmd(uint32_t RCC_APB2Periph, FunctionalState NewState)
{
 8000828:	b480      	push	{r7}
 800082a:	b083      	sub	sp, #12
 800082c:	af00      	add	r7, sp, #0
 800082e:	6078      	str	r0, [r7, #4]
 8000830:	460b      	mov	r3, r1
 8000832:	70fb      	strb	r3, [r7, #3]
  /* Check the parameters */
  assert_param(IS_RCC_APB2_PERIPH(RCC_APB2Periph));
  assert_param(IS_FUNCTIONAL_STATE(NewState));
  if (NewState != DISABLE)
 8000834:	78fb      	ldrb	r3, [r7, #3]
 8000836:	2b00      	cmp	r3, #0
 8000838:	d006      	beq.n	8000848 <RCC_APB2PeriphClockCmd+0x20>
  {
    RCC->APB2ENR |= RCC_APB2Periph;
 800083a:	4909      	ldr	r1, [pc, #36]	; (8000860 <RCC_APB2PeriphClockCmd+0x38>)
 800083c:	4b08      	ldr	r3, [pc, #32]	; (8000860 <RCC_APB2PeriphClockCmd+0x38>)
 800083e:	699a      	ldr	r2, [r3, #24]
 8000840:	687b      	ldr	r3, [r7, #4]
 8000842:	4313      	orrs	r3, r2
 8000844:	618b      	str	r3, [r1, #24]
  }
  else
  {
    RCC->APB2ENR &= ~RCC_APB2Periph;
  }
}
 8000846:	e006      	b.n	8000856 <RCC_APB2PeriphClockCmd+0x2e>
  {
    RCC->APB2ENR |= RCC_APB2Periph;
  }
  else
  {
    RCC->APB2ENR &= ~RCC_APB2Periph;
 8000848:	4905      	ldr	r1, [pc, #20]	; (8000860 <RCC_APB2PeriphClockCmd+0x38>)
 800084a:	4b05      	ldr	r3, [pc, #20]	; (8000860 <RCC_APB2PeriphClockCmd+0x38>)
 800084c:	699a      	ldr	r2, [r3, #24]
 800084e:	687b      	ldr	r3, [r7, #4]
 8000850:	43db      	mvns	r3, r3
 8000852:	4013      	ands	r3, r2
 8000854:	618b      	str	r3, [r1, #24]
  }
}
 8000856:	bf00      	nop
 8000858:	370c      	adds	r7, #12
 800085a:	46bd      	mov	sp, r7
 800085c:	bc80      	pop	{r7}
 800085e:	4770      	bx	lr
 8000860:	40021000 	andmi	r1, r2, r0

08000864 <NVIC_PriorityGroupConfig>:
  *     @arg NVIC_PriorityGroup_4: 4 bits for pre-emption priority
  *                                0 bits for subpriority
  * @retval None
  */
void NVIC_PriorityGroupConfig(uint32_t NVIC_PriorityGroup)
{
 8000864:	b480      	push	{r7}
 8000866:	b083      	sub	sp, #12
 8000868:	af00      	add	r7, sp, #0
 800086a:	6078      	str	r0, [r7, #4]
  /* Check the parameters */
  assert_param(IS_NVIC_PRIORITY_GROUP(NVIC_PriorityGroup));
  
  /* Set the PRIGROUP[10:8] bits according to NVIC_PriorityGroup value */
  SCB->AIRCR = AIRCR_VECTKEY_MASK | NVIC_PriorityGroup;
 800086c:	4a05      	ldr	r2, [pc, #20]	; (8000884 <NVIC_PriorityGroupConfig+0x20>)
 800086e:	687b      	ldr	r3, [r7, #4]
 8000870:	f043 63bf 	orr.w	r3, r3, #100139008	; 0x5f80000
 8000874:	f443 3300 	orr.w	r3, r3, #131072	; 0x20000
 8000878:	60d3      	str	r3, [r2, #12]
}
 800087a:	bf00      	nop
 800087c:	370c      	adds	r7, #12
 800087e:	46bd      	mov	sp, r7
 8000880:	bc80      	pop	{r7}
 8000882:	4770      	bx	lr
 8000884:	e000ed00 	and	lr, r0, r0, lsl #26

08000888 <NVIC_Init>:
  * @param  NVIC_InitStruct: pointer to a NVIC_InitTypeDef structure that contains
  *         the configuration information for the specified NVIC peripheral.
  * @retval None
  */
void NVIC_Init(NVIC_InitTypeDef* NVIC_InitStruct)
{
 8000888:	b480      	push	{r7}
 800088a:	b087      	sub	sp, #28
 800088c:	af00      	add	r7, sp, #0
 800088e:	6078      	str	r0, [r7, #4]
  uint32_t tmppriority = 0x00, tmppre = 0x00, tmpsub = 0x0F;
 8000890:	2300      	movs	r3, #0
 8000892:	617b      	str	r3, [r7, #20]
 8000894:	2300      	movs	r3, #0
 8000896:	613b      	str	r3, [r7, #16]
 8000898:	230f      	movs	r3, #15
 800089a:	60fb      	str	r3, [r7, #12]
  /* Check the parameters */
  assert_param(IS_FUNCTIONAL_STATE(NVIC_InitStruct->NVIC_IRQChannelCmd));
  assert_param(IS_NVIC_PREEMPTION_PRIORITY(NVIC_InitStruct->NVIC_IRQChannelPreemptionPriority));  
  assert_param(IS_NVIC_SUB_PRIORITY(NVIC_InitStruct->NVIC_IRQChannelSubPriority));
    
  if (NVIC_InitStruct->NVIC_IRQChannelCmd != DISABLE)
 800089c:	687b      	ldr	r3, [r7, #4]
 800089e:	78db      	ldrb	r3, [r3, #3]
 80008a0:	2b00      	cmp	r3, #0
 80008a2:	d03a      	beq.n	800091a <NVIC_Init+0x92>
  {
    /* Compute the Corresponding IRQ Priority --------------------------------*/    
    tmppriority = (0x700 - ((SCB->AIRCR) & (uint32_t)0x700))>> 0x08;
 80008a4:	4b27      	ldr	r3, [pc, #156]	; (8000944 <NVIC_Init+0xbc>)
 80008a6:	68db      	ldr	r3, [r3, #12]
 80008a8:	43db      	mvns	r3, r3
 80008aa:	f403 63e0 	and.w	r3, r3, #1792	; 0x700
 80008ae:	0a1b      	lsrs	r3, r3, #8
 80008b0:	617b      	str	r3, [r7, #20]
    tmppre = (0x4 - tmppriority);
 80008b2:	697b      	ldr	r3, [r7, #20]
 80008b4:	f1c3 0304 	rsb	r3, r3, #4
 80008b8:	613b      	str	r3, [r7, #16]
    tmpsub = tmpsub >> tmppriority;
 80008ba:	68fa      	ldr	r2, [r7, #12]
 80008bc:	697b      	ldr	r3, [r7, #20]
 80008be:	fa22 f303 	lsr.w	r3, r2, r3
 80008c2:	60fb      	str	r3, [r7, #12]

    tmppriority = (uint32_t)NVIC_InitStruct->NVIC_IRQChannelPreemptionPriority << tmppre;
 80008c4:	687b      	ldr	r3, [r7, #4]
 80008c6:	785b      	ldrb	r3, [r3, #1]
 80008c8:	461a      	mov	r2, r3
 80008ca:	693b      	ldr	r3, [r7, #16]
 80008cc:	fa02 f303 	lsl.w	r3, r2, r3
 80008d0:	617b      	str	r3, [r7, #20]
    tmppriority |=  NVIC_InitStruct->NVIC_IRQChannelSubPriority & tmpsub;
 80008d2:	687b      	ldr	r3, [r7, #4]
 80008d4:	789b      	ldrb	r3, [r3, #2]
 80008d6:	461a      	mov	r2, r3
 80008d8:	68fb      	ldr	r3, [r7, #12]
 80008da:	4013      	ands	r3, r2
 80008dc:	697a      	ldr	r2, [r7, #20]
 80008de:	4313      	orrs	r3, r2
 80008e0:	617b      	str	r3, [r7, #20]
    tmppriority = tmppriority << 0x04;
 80008e2:	697b      	ldr	r3, [r7, #20]
 80008e4:	011b      	lsls	r3, r3, #4
 80008e6:	617b      	str	r3, [r7, #20]
        
    NVIC->IP[NVIC_InitStruct->NVIC_IRQChannel] = tmppriority;
 80008e8:	4a17      	ldr	r2, [pc, #92]	; (8000948 <NVIC_Init+0xc0>)
 80008ea:	687b      	ldr	r3, [r7, #4]
 80008ec:	781b      	ldrb	r3, [r3, #0]
 80008ee:	6979      	ldr	r1, [r7, #20]
 80008f0:	b2c9      	uxtb	r1, r1
 80008f2:	4413      	add	r3, r2
 80008f4:	460a      	mov	r2, r1
 80008f6:	f883 2300 	strb.w	r2, [r3, #768]	; 0x300
    
    /* Enable the Selected IRQ Channels --------------------------------------*/
    NVIC->ISER[NVIC_InitStruct->NVIC_IRQChannel >> 0x05] =
 80008fa:	4a13      	ldr	r2, [pc, #76]	; (8000948 <NVIC_Init+0xc0>)
 80008fc:	687b      	ldr	r3, [r7, #4]
 80008fe:	781b      	ldrb	r3, [r3, #0]
 8000900:	095b      	lsrs	r3, r3, #5
 8000902:	b2db      	uxtb	r3, r3
 8000904:	4618      	mov	r0, r3
      (uint32_t)0x01 << (NVIC_InitStruct->NVIC_IRQChannel & (uint8_t)0x1F);
 8000906:	687b      	ldr	r3, [r7, #4]
 8000908:	781b      	ldrb	r3, [r3, #0]
 800090a:	f003 031f 	and.w	r3, r3, #31
 800090e:	2101      	movs	r1, #1
 8000910:	fa01 f303 	lsl.w	r3, r1, r3
    tmppriority = tmppriority << 0x04;
        
    NVIC->IP[NVIC_InitStruct->NVIC_IRQChannel] = tmppriority;
    
    /* Enable the Selected IRQ Channels --------------------------------------*/
    NVIC->ISER[NVIC_InitStruct->NVIC_IRQChannel >> 0x05] =
 8000914:	f842 3020 	str.w	r3, [r2, r0, lsl #2]
  {
    /* Disable the Selected IRQ Channels -------------------------------------*/
    NVIC->ICER[NVIC_InitStruct->NVIC_IRQChannel >> 0x05] =
      (uint32_t)0x01 << (NVIC_InitStruct->NVIC_IRQChannel & (uint8_t)0x1F);
  }
}
 8000918:	e00f      	b.n	800093a <NVIC_Init+0xb2>
      (uint32_t)0x01 << (NVIC_InitStruct->NVIC_IRQChannel & (uint8_t)0x1F);
  }
  else
  {
    /* Disable the Selected IRQ Channels -------------------------------------*/
    NVIC->ICER[NVIC_InitStruct->NVIC_IRQChannel >> 0x05] =
 800091a:	490b      	ldr	r1, [pc, #44]	; (8000948 <NVIC_Init+0xc0>)
 800091c:	687b      	ldr	r3, [r7, #4]
 800091e:	781b      	ldrb	r3, [r3, #0]
 8000920:	095b      	lsrs	r3, r3, #5
 8000922:	b2db      	uxtb	r3, r3
 8000924:	4618      	mov	r0, r3
      (uint32_t)0x01 << (NVIC_InitStruct->NVIC_IRQChannel & (uint8_t)0x1F);
 8000926:	687b      	ldr	r3, [r7, #4]
 8000928:	781b      	ldrb	r3, [r3, #0]
 800092a:	f003 031f 	and.w	r3, r3, #31
 800092e:	2201      	movs	r2, #1
 8000930:	409a      	lsls	r2, r3
      (uint32_t)0x01 << (NVIC_InitStruct->NVIC_IRQChannel & (uint8_t)0x1F);
  }
  else
  {
    /* Disable the Selected IRQ Channels -------------------------------------*/
    NVIC->ICER[NVIC_InitStruct->NVIC_IRQChannel >> 0x05] =
 8000932:	f100 0320 	add.w	r3, r0, #32
 8000936:	f841 2023 	str.w	r2, [r1, r3, lsl #2]
      (uint32_t)0x01 << (NVIC_InitStruct->NVIC_IRQChannel & (uint8_t)0x1F);
  }
}
 800093a:	bf00      	nop
 800093c:	371c      	adds	r7, #28
 800093e:	46bd      	mov	sp, r7
 8000940:	bc80      	pop	{r7}
 8000942:	4770      	bx	lr
 8000944:	e000ed00 	and	lr, r0, r0, lsl #26
 8000948:	e000e100 	and	lr, r0, r0, lsl #2

0800094c <USART_Init>:
  *         that contains the configuration information for the specified USART 
  *         peripheral.
  * @retval None
  */
void USART_Init(USART_TypeDef* USARTx, USART_InitTypeDef* USART_InitStruct)
{
 800094c:	b580      	push	{r7, lr}
 800094e:	b08c      	sub	sp, #48	; 0x30
 8000950:	af00      	add	r7, sp, #0
 8000952:	6078      	str	r0, [r7, #4]
 8000954:	6039      	str	r1, [r7, #0]
  uint32_t tmpreg = 0x00, apbclock = 0x00;
 8000956:	2300      	movs	r3, #0
 8000958:	62fb      	str	r3, [r7, #44]	; 0x2c
 800095a:	2300      	movs	r3, #0
 800095c:	62bb      	str	r3, [r7, #40]	; 0x28
  uint32_t integerdivider = 0x00;
 800095e:	2300      	movs	r3, #0
 8000960:	627b      	str	r3, [r7, #36]	; 0x24
  uint32_t fractionaldivider = 0x00;
 8000962:	2300      	movs	r3, #0
 8000964:	623b      	str	r3, [r7, #32]
  uint32_t usartxbase = 0;
 8000966:	2300      	movs	r3, #0
 8000968:	61fb      	str	r3, [r7, #28]
  if (USART_InitStruct->USART_HardwareFlowControl != USART_HardwareFlowControl_None)
  {
    assert_param(IS_USART_123_PERIPH(USARTx));
  }

  usartxbase = (uint32_t)USARTx;
 800096a:	687b      	ldr	r3, [r7, #4]
 800096c:	61fb      	str	r3, [r7, #28]

/*---------------------------- USART CR2 Configuration -----------------------*/
  tmpreg = USARTx->CR2;
 800096e:	687b      	ldr	r3, [r7, #4]
 8000970:	8a1b      	ldrh	r3, [r3, #16]
 8000972:	b29b      	uxth	r3, r3
 8000974:	62fb      	str	r3, [r7, #44]	; 0x2c
  /* Clear STOP[13:12] bits */
  tmpreg &= CR2_STOP_CLEAR_Mask;
 8000976:	6afa      	ldr	r2, [r7, #44]	; 0x2c
 8000978:	f64c 73ff 	movw	r3, #53247	; 0xcfff
 800097c:	4013      	ands	r3, r2
 800097e:	62fb      	str	r3, [r7, #44]	; 0x2c
  /* Configure the USART Stop Bits, Clock, CPOL, CPHA and LastBit ------------*/
  /* Set STOP[13:12] bits according to USART_StopBits value */
  tmpreg |= (uint32_t)USART_InitStruct->USART_StopBits;
 8000980:	683b      	ldr	r3, [r7, #0]
 8000982:	88db      	ldrh	r3, [r3, #6]
 8000984:	461a      	mov	r2, r3
 8000986:	6afb      	ldr	r3, [r7, #44]	; 0x2c
 8000988:	4313      	orrs	r3, r2
 800098a:	62fb      	str	r3, [r7, #44]	; 0x2c
  
  /* Write to USART CR2 */
  USARTx->CR2 = (uint16_t)tmpreg;
 800098c:	6afb      	ldr	r3, [r7, #44]	; 0x2c
 800098e:	b29a      	uxth	r2, r3
 8000990:	687b      	ldr	r3, [r7, #4]
 8000992:	821a      	strh	r2, [r3, #16]

/*---------------------------- USART CR1 Configuration -----------------------*/
  tmpreg = USARTx->CR1;
 8000994:	687b      	ldr	r3, [r7, #4]
 8000996:	899b      	ldrh	r3, [r3, #12]
 8000998:	b29b      	uxth	r3, r3
 800099a:	62fb      	str	r3, [r7, #44]	; 0x2c
  /* Clear M, PCE, PS, TE and RE bits */
  tmpreg &= CR1_CLEAR_Mask;
 800099c:	6afa      	ldr	r2, [r7, #44]	; 0x2c
 800099e:	f64e 13f3 	movw	r3, #59891	; 0xe9f3
 80009a2:	4013      	ands	r3, r2
 80009a4:	62fb      	str	r3, [r7, #44]	; 0x2c
  /* Configure the USART Word Length, Parity and mode ----------------------- */
  /* Set the M bits according to USART_WordLength value */
  /* Set PCE and PS bits according to USART_Parity value */
  /* Set TE and RE bits according to USART_Mode value */
  tmpreg |= (uint32_t)USART_InitStruct->USART_WordLength | USART_InitStruct->USART_Parity |
 80009a6:	683b      	ldr	r3, [r7, #0]
 80009a8:	889a      	ldrh	r2, [r3, #4]
 80009aa:	683b      	ldr	r3, [r7, #0]
 80009ac:	891b      	ldrh	r3, [r3, #8]
 80009ae:	4313      	orrs	r3, r2
 80009b0:	b29a      	uxth	r2, r3
            USART_InitStruct->USART_Mode;
 80009b2:	683b      	ldr	r3, [r7, #0]
 80009b4:	895b      	ldrh	r3, [r3, #10]
  tmpreg &= CR1_CLEAR_Mask;
  /* Configure the USART Word Length, Parity and mode ----------------------- */
  /* Set the M bits according to USART_WordLength value */
  /* Set PCE and PS bits according to USART_Parity value */
  /* Set TE and RE bits according to USART_Mode value */
  tmpreg |= (uint32_t)USART_InitStruct->USART_WordLength | USART_InitStruct->USART_Parity |
 80009b6:	4313      	orrs	r3, r2
 80009b8:	b29b      	uxth	r3, r3
 80009ba:	461a      	mov	r2, r3
 80009bc:	6afb      	ldr	r3, [r7, #44]	; 0x2c
 80009be:	4313      	orrs	r3, r2
 80009c0:	62fb      	str	r3, [r7, #44]	; 0x2c
            USART_InitStruct->USART_Mode;
  /* Write to USART CR1 */
  USARTx->CR1 = (uint16_t)tmpreg;
 80009c2:	6afb      	ldr	r3, [r7, #44]	; 0x2c
 80009c4:	b29a      	uxth	r2, r3
 80009c6:	687b      	ldr	r3, [r7, #4]
 80009c8:	819a      	strh	r2, [r3, #12]

/*---------------------------- USART CR3 Configuration -----------------------*/  
  tmpreg = USARTx->CR3;
 80009ca:	687b      	ldr	r3, [r7, #4]
 80009cc:	8a9b      	ldrh	r3, [r3, #20]
 80009ce:	b29b      	uxth	r3, r3
 80009d0:	62fb      	str	r3, [r7, #44]	; 0x2c
  /* Clear CTSE and RTSE bits */
  tmpreg &= CR3_CLEAR_Mask;
 80009d2:	6afa      	ldr	r2, [r7, #44]	; 0x2c
 80009d4:	f64f 43ff 	movw	r3, #64767	; 0xfcff
 80009d8:	4013      	ands	r3, r2
 80009da:	62fb      	str	r3, [r7, #44]	; 0x2c
  /* Configure the USART HFC -------------------------------------------------*/
  /* Set CTSE and RTSE bits according to USART_HardwareFlowControl value */
  tmpreg |= USART_InitStruct->USART_HardwareFlowControl;
 80009dc:	683b      	ldr	r3, [r7, #0]
 80009de:	899b      	ldrh	r3, [r3, #12]
 80009e0:	461a      	mov	r2, r3
 80009e2:	6afb      	ldr	r3, [r7, #44]	; 0x2c
 80009e4:	4313      	orrs	r3, r2
 80009e6:	62fb      	str	r3, [r7, #44]	; 0x2c
  /* Write to USART CR3 */
  USARTx->CR3 = (uint16_t)tmpreg;
 80009e8:	6afb      	ldr	r3, [r7, #44]	; 0x2c
 80009ea:	b29a      	uxth	r2, r3
 80009ec:	687b      	ldr	r3, [r7, #4]
 80009ee:	829a      	strh	r2, [r3, #20]

/*---------------------------- USART BRR Configuration -----------------------*/
  /* Configure the USART Baud Rate -------------------------------------------*/
  RCC_GetClocksFreq(&RCC_ClocksStatus);
 80009f0:	f107 0308 	add.w	r3, r7, #8
 80009f4:	4618      	mov	r0, r3
 80009f6:	f7ff fe67 	bl	80006c8 <RCC_GetClocksFreq>
  if (usartxbase == USART1_BASE)
 80009fa:	69fb      	ldr	r3, [r7, #28]
 80009fc:	4a2e      	ldr	r2, [pc, #184]	; (8000ab8 <USART_Init+0x16c>)
 80009fe:	4293      	cmp	r3, r2
 8000a00:	d102      	bne.n	8000a08 <USART_Init+0xbc>
  {
    apbclock = RCC_ClocksStatus.PCLK2_Frequency;
 8000a02:	697b      	ldr	r3, [r7, #20]
 8000a04:	62bb      	str	r3, [r7, #40]	; 0x28
 8000a06:	e001      	b.n	8000a0c <USART_Init+0xc0>
  }
  else
  {
    apbclock = RCC_ClocksStatus.PCLK1_Frequency;
 8000a08:	693b      	ldr	r3, [r7, #16]
 8000a0a:	62bb      	str	r3, [r7, #40]	; 0x28
  }
  
  /* Determine the integer part */
  if ((USARTx->CR1 & CR1_OVER8_Set) != 0)
 8000a0c:	687b      	ldr	r3, [r7, #4]
 8000a0e:	899b      	ldrh	r3, [r3, #12]
 8000a10:	b29b      	uxth	r3, r3
 8000a12:	b21b      	sxth	r3, r3
 8000a14:	2b00      	cmp	r3, #0
 8000a16:	da0c      	bge.n	8000a32 <USART_Init+0xe6>
  {
    /* Integer part computing in case Oversampling mode is 8 Samples */
    integerdivider = ((25 * apbclock) / (2 * (USART_InitStruct->USART_BaudRate)));    
 8000a18:	6aba      	ldr	r2, [r7, #40]	; 0x28
 8000a1a:	4613      	mov	r3, r2
 8000a1c:	009b      	lsls	r3, r3, #2
 8000a1e:	4413      	add	r3, r2
 8000a20:	009a      	lsls	r2, r3, #2
 8000a22:	441a      	add	r2, r3
 8000a24:	683b      	ldr	r3, [r7, #0]
 8000a26:	681b      	ldr	r3, [r3, #0]
 8000a28:	005b      	lsls	r3, r3, #1
 8000a2a:	fbb2 f3f3 	udiv	r3, r2, r3
 8000a2e:	627b      	str	r3, [r7, #36]	; 0x24
 8000a30:	e00b      	b.n	8000a4a <USART_Init+0xfe>
  }
  else /* if ((USARTx->CR1 & CR1_OVER8_Set) == 0) */
  {
    /* Integer part computing in case Oversampling mode is 16 Samples */
    integerdivider = ((25 * apbclock) / (4 * (USART_InitStruct->USART_BaudRate)));    
 8000a32:	6aba      	ldr	r2, [r7, #40]	; 0x28
 8000a34:	4613      	mov	r3, r2
 8000a36:	009b      	lsls	r3, r3, #2
 8000a38:	4413      	add	r3, r2
 8000a3a:	009a      	lsls	r2, r3, #2
 8000a3c:	441a      	add	r2, r3
 8000a3e:	683b      	ldr	r3, [r7, #0]
 8000a40:	681b      	ldr	r3, [r3, #0]
 8000a42:	009b      	lsls	r3, r3, #2
 8000a44:	fbb2 f3f3 	udiv	r3, r2, r3
 8000a48:	627b      	str	r3, [r7, #36]	; 0x24
  }
  tmpreg = (integerdivider / 100) << 4;
 8000a4a:	6a7b      	ldr	r3, [r7, #36]	; 0x24
 8000a4c:	4a1b      	ldr	r2, [pc, #108]	; (8000abc <USART_Init+0x170>)
 8000a4e:	fba2 2303 	umull	r2, r3, r2, r3
 8000a52:	095b      	lsrs	r3, r3, #5
 8000a54:	011b      	lsls	r3, r3, #4
 8000a56:	62fb      	str	r3, [r7, #44]	; 0x2c

  /* Determine the fractional part */
  fractionaldivider = integerdivider - (100 * (tmpreg >> 4));
 8000a58:	6afb      	ldr	r3, [r7, #44]	; 0x2c
 8000a5a:	091b      	lsrs	r3, r3, #4
 8000a5c:	2264      	movs	r2, #100	; 0x64
 8000a5e:	fb02 f303 	mul.w	r3, r2, r3
 8000a62:	6a7a      	ldr	r2, [r7, #36]	; 0x24
 8000a64:	1ad3      	subs	r3, r2, r3
 8000a66:	623b      	str	r3, [r7, #32]

  /* Implement the fractional part in the register */
  if ((USARTx->CR1 & CR1_OVER8_Set) != 0)
 8000a68:	687b      	ldr	r3, [r7, #4]
 8000a6a:	899b      	ldrh	r3, [r3, #12]
 8000a6c:	b29b      	uxth	r3, r3
 8000a6e:	b21b      	sxth	r3, r3
 8000a70:	2b00      	cmp	r3, #0
 8000a72:	da0c      	bge.n	8000a8e <USART_Init+0x142>
  {
    tmpreg |= ((((fractionaldivider * 8) + 50) / 100)) & ((uint8_t)0x07);
 8000a74:	6a3b      	ldr	r3, [r7, #32]
 8000a76:	00db      	lsls	r3, r3, #3
 8000a78:	3332      	adds	r3, #50	; 0x32
 8000a7a:	4a10      	ldr	r2, [pc, #64]	; (8000abc <USART_Init+0x170>)
 8000a7c:	fba2 2303 	umull	r2, r3, r2, r3
 8000a80:	095b      	lsrs	r3, r3, #5
 8000a82:	f003 0307 	and.w	r3, r3, #7
 8000a86:	6afa      	ldr	r2, [r7, #44]	; 0x2c
 8000a88:	4313      	orrs	r3, r2
 8000a8a:	62fb      	str	r3, [r7, #44]	; 0x2c
 8000a8c:	e00b      	b.n	8000aa6 <USART_Init+0x15a>
  }
  else /* if ((USARTx->CR1 & CR1_OVER8_Set) == 0) */
  {
    tmpreg |= ((((fractionaldivider * 16) + 50) / 100)) & ((uint8_t)0x0F);
 8000a8e:	6a3b      	ldr	r3, [r7, #32]
 8000a90:	011b      	lsls	r3, r3, #4
 8000a92:	3332      	adds	r3, #50	; 0x32
 8000a94:	4a09      	ldr	r2, [pc, #36]	; (8000abc <USART_Init+0x170>)
 8000a96:	fba2 2303 	umull	r2, r3, r2, r3
 8000a9a:	095b      	lsrs	r3, r3, #5
 8000a9c:	f003 030f 	and.w	r3, r3, #15
 8000aa0:	6afa      	ldr	r2, [r7, #44]	; 0x2c
 8000aa2:	4313      	orrs	r3, r2
 8000aa4:	62fb      	str	r3, [r7, #44]	; 0x2c
  }
  
  /* Write to USART BRR */
  USARTx->BRR = (uint16_t)tmpreg;
 8000aa6:	6afb      	ldr	r3, [r7, #44]	; 0x2c
 8000aa8:	b29a      	uxth	r2, r3
 8000aaa:	687b      	ldr	r3, [r7, #4]
 8000aac:	811a      	strh	r2, [r3, #8]
}
 8000aae:	bf00      	nop
 8000ab0:	3730      	adds	r7, #48	; 0x30
 8000ab2:	46bd      	mov	sp, r7
 8000ab4:	bd80      	pop	{r7, pc}
 8000ab6:	bf00      	nop
 8000ab8:	40013800 	andmi	r3, r1, r0, lsl #16
 8000abc:	51eb851f 	mvnpl	r8, pc, lsl r5

08000ac0 <USART_Cmd>:
  * @param  NewState: new state of the USARTx peripheral.
  *         This parameter can be: ENABLE or DISABLE.
  * @retval None
  */
void USART_Cmd(USART_TypeDef* USARTx, FunctionalState NewState)
{
 8000ac0:	b480      	push	{r7}
 8000ac2:	b083      	sub	sp, #12
 8000ac4:	af00      	add	r7, sp, #0
 8000ac6:	6078      	str	r0, [r7, #4]
 8000ac8:	460b      	mov	r3, r1
 8000aca:	70fb      	strb	r3, [r7, #3]
  /* Check the parameters */
  assert_param(IS_USART_ALL_PERIPH(USARTx));
  assert_param(IS_FUNCTIONAL_STATE(NewState));
  
  if (NewState != DISABLE)
 8000acc:	78fb      	ldrb	r3, [r7, #3]
 8000ace:	2b00      	cmp	r3, #0
 8000ad0:	d008      	beq.n	8000ae4 <USART_Cmd+0x24>
  {
    /* Enable the selected USART by setting the UE bit in the CR1 register */
    USARTx->CR1 |= CR1_UE_Set;
 8000ad2:	687b      	ldr	r3, [r7, #4]
 8000ad4:	899b      	ldrh	r3, [r3, #12]
 8000ad6:	b29b      	uxth	r3, r3
 8000ad8:	f443 5300 	orr.w	r3, r3, #8192	; 0x2000
 8000adc:	b29a      	uxth	r2, r3
 8000ade:	687b      	ldr	r3, [r7, #4]
 8000ae0:	819a      	strh	r2, [r3, #12]
  else
  {
    /* Disable the selected USART by clearing the UE bit in the CR1 register */
    USARTx->CR1 &= CR1_UE_Reset;
  }
}
 8000ae2:	e007      	b.n	8000af4 <USART_Cmd+0x34>
    USARTx->CR1 |= CR1_UE_Set;
  }
  else
  {
    /* Disable the selected USART by clearing the UE bit in the CR1 register */
    USARTx->CR1 &= CR1_UE_Reset;
 8000ae4:	687b      	ldr	r3, [r7, #4]
 8000ae6:	899b      	ldrh	r3, [r3, #12]
 8000ae8:	b29b      	uxth	r3, r3
 8000aea:	f423 5300 	bic.w	r3, r3, #8192	; 0x2000
 8000aee:	b29a      	uxth	r2, r3
 8000af0:	687b      	ldr	r3, [r7, #4]
 8000af2:	819a      	strh	r2, [r3, #12]
  }
}
 8000af4:	bf00      	nop
 8000af6:	370c      	adds	r7, #12
 8000af8:	46bd      	mov	sp, r7
 8000afa:	bc80      	pop	{r7}
 8000afc:	4770      	bx	lr
 8000afe:	bf00      	nop

08000b00 <USART_ITConfig>:
  * @param  NewState: new state of the specified USARTx interrupts.
  *   This parameter can be: ENABLE or DISABLE.
  * @retval None
  */
void USART_ITConfig(USART_TypeDef* USARTx, uint16_t USART_IT, FunctionalState NewState)
{
 8000b00:	b480      	push	{r7}
 8000b02:	b087      	sub	sp, #28
 8000b04:	af00      	add	r7, sp, #0
 8000b06:	6078      	str	r0, [r7, #4]
 8000b08:	460b      	mov	r3, r1
 8000b0a:	807b      	strh	r3, [r7, #2]
 8000b0c:	4613      	mov	r3, r2
 8000b0e:	707b      	strb	r3, [r7, #1]
  uint32_t usartreg = 0x00, itpos = 0x00, itmask = 0x00;
 8000b10:	2300      	movs	r3, #0
 8000b12:	613b      	str	r3, [r7, #16]
 8000b14:	2300      	movs	r3, #0
 8000b16:	60fb      	str	r3, [r7, #12]
 8000b18:	2300      	movs	r3, #0
 8000b1a:	60bb      	str	r3, [r7, #8]
  uint32_t usartxbase = 0x00;
 8000b1c:	2300      	movs	r3, #0
 8000b1e:	617b      	str	r3, [r7, #20]
  if (USART_IT == USART_IT_CTS)
  {
    assert_param(IS_USART_123_PERIPH(USARTx));
  }   
  
  usartxbase = (uint32_t)USARTx;
 8000b20:	687b      	ldr	r3, [r7, #4]
 8000b22:	617b      	str	r3, [r7, #20]

  /* Get the USART register index */
  usartreg = (((uint8_t)USART_IT) >> 0x05);
 8000b24:	887b      	ldrh	r3, [r7, #2]
 8000b26:	b2db      	uxtb	r3, r3
 8000b28:	095b      	lsrs	r3, r3, #5
 8000b2a:	b2db      	uxtb	r3, r3
 8000b2c:	613b      	str	r3, [r7, #16]

  /* Get the interrupt position */
  itpos = USART_IT & IT_Mask;
 8000b2e:	887b      	ldrh	r3, [r7, #2]
 8000b30:	f003 031f 	and.w	r3, r3, #31
 8000b34:	60fb      	str	r3, [r7, #12]
  itmask = (((uint32_t)0x01) << itpos);
 8000b36:	2201      	movs	r2, #1
 8000b38:	68fb      	ldr	r3, [r7, #12]
 8000b3a:	fa02 f303 	lsl.w	r3, r2, r3
 8000b3e:	60bb      	str	r3, [r7, #8]
    
  if (usartreg == 0x01) /* The IT is in CR1 register */
 8000b40:	693b      	ldr	r3, [r7, #16]
 8000b42:	2b01      	cmp	r3, #1
 8000b44:	d103      	bne.n	8000b4e <USART_ITConfig+0x4e>
  {
    usartxbase += 0x0C;
 8000b46:	697b      	ldr	r3, [r7, #20]
 8000b48:	330c      	adds	r3, #12
 8000b4a:	617b      	str	r3, [r7, #20]
 8000b4c:	e009      	b.n	8000b62 <USART_ITConfig+0x62>
  }
  else if (usartreg == 0x02) /* The IT is in CR2 register */
 8000b4e:	693b      	ldr	r3, [r7, #16]
 8000b50:	2b02      	cmp	r3, #2
 8000b52:	d103      	bne.n	8000b5c <USART_ITConfig+0x5c>
  {
    usartxbase += 0x10;
 8000b54:	697b      	ldr	r3, [r7, #20]
 8000b56:	3310      	adds	r3, #16
 8000b58:	617b      	str	r3, [r7, #20]
 8000b5a:	e002      	b.n	8000b62 <USART_ITConfig+0x62>
  }
  else /* The IT is in CR3 register */
  {
    usartxbase += 0x14; 
 8000b5c:	697b      	ldr	r3, [r7, #20]
 8000b5e:	3314      	adds	r3, #20
 8000b60:	617b      	str	r3, [r7, #20]
  }
  if (NewState != DISABLE)
 8000b62:	787b      	ldrb	r3, [r7, #1]
 8000b64:	2b00      	cmp	r3, #0
 8000b66:	d006      	beq.n	8000b76 <USART_ITConfig+0x76>
  {
    *(__IO uint32_t*)usartxbase  |= itmask;
 8000b68:	697b      	ldr	r3, [r7, #20]
 8000b6a:	697a      	ldr	r2, [r7, #20]
 8000b6c:	6811      	ldr	r1, [r2, #0]
 8000b6e:	68ba      	ldr	r2, [r7, #8]
 8000b70:	430a      	orrs	r2, r1
 8000b72:	601a      	str	r2, [r3, #0]
  }
  else
  {
    *(__IO uint32_t*)usartxbase &= ~itmask;
  }
}
 8000b74:	e006      	b.n	8000b84 <USART_ITConfig+0x84>
  {
    *(__IO uint32_t*)usartxbase  |= itmask;
  }
  else
  {
    *(__IO uint32_t*)usartxbase &= ~itmask;
 8000b76:	697b      	ldr	r3, [r7, #20]
 8000b78:	697a      	ldr	r2, [r7, #20]
 8000b7a:	6811      	ldr	r1, [r2, #0]
 8000b7c:	68ba      	ldr	r2, [r7, #8]
 8000b7e:	43d2      	mvns	r2, r2
 8000b80:	400a      	ands	r2, r1
 8000b82:	601a      	str	r2, [r3, #0]
  }
}
 8000b84:	bf00      	nop
 8000b86:	371c      	adds	r7, #28
 8000b88:	46bd      	mov	sp, r7
 8000b8a:	bc80      	pop	{r7}
 8000b8c:	4770      	bx	lr
 8000b8e:	bf00      	nop

08000b90 <USART_SendData>:
  *   USART1, USART2, USART3, UART4 or UART5.
  * @param  Data: the data to transmit.
  * @retval None
  */
void USART_SendData(USART_TypeDef* USARTx, uint16_t Data)
{
 8000b90:	b480      	push	{r7}
 8000b92:	b083      	sub	sp, #12
 8000b94:	af00      	add	r7, sp, #0
 8000b96:	6078      	str	r0, [r7, #4]
 8000b98:	460b      	mov	r3, r1
 8000b9a:	807b      	strh	r3, [r7, #2]
  /* Check the parameters */
  assert_param(IS_USART_ALL_PERIPH(USARTx));
  assert_param(IS_USART_DATA(Data)); 
    
  /* Transmit Data */
  USARTx->DR = (Data & (uint16_t)0x01FF);
 8000b9c:	887b      	ldrh	r3, [r7, #2]
 8000b9e:	f3c3 0308 	ubfx	r3, r3, #0, #9
 8000ba2:	b29a      	uxth	r2, r3
 8000ba4:	687b      	ldr	r3, [r7, #4]
 8000ba6:	809a      	strh	r2, [r3, #4]
}
 8000ba8:	bf00      	nop
 8000baa:	370c      	adds	r7, #12
 8000bac:	46bd      	mov	sp, r7
 8000bae:	bc80      	pop	{r7}
 8000bb0:	4770      	bx	lr
 8000bb2:	bf00      	nop

08000bb4 <USART_GetFlagStatus>:
  *     @arg USART_FLAG_FE:   Framing Error flag
  *     @arg USART_FLAG_PE:   Parity Error flag
  * @retval The new state of USART_FLAG (SET or RESET).
  */
FlagStatus USART_GetFlagStatus(USART_TypeDef* USARTx, uint16_t USART_FLAG)
{
 8000bb4:	b480      	push	{r7}
 8000bb6:	b085      	sub	sp, #20
 8000bb8:	af00      	add	r7, sp, #0
 8000bba:	6078      	str	r0, [r7, #4]
 8000bbc:	460b      	mov	r3, r1
 8000bbe:	807b      	strh	r3, [r7, #2]
  FlagStatus bitstatus = RESET;
 8000bc0:	2300      	movs	r3, #0
 8000bc2:	73fb      	strb	r3, [r7, #15]
  if (USART_FLAG == USART_FLAG_CTS)
  {
    assert_param(IS_USART_123_PERIPH(USARTx));
  }  
  
  if ((USARTx->SR & USART_FLAG) != (uint16_t)RESET)
 8000bc4:	687b      	ldr	r3, [r7, #4]
 8000bc6:	881b      	ldrh	r3, [r3, #0]
 8000bc8:	b29a      	uxth	r2, r3
 8000bca:	887b      	ldrh	r3, [r7, #2]
 8000bcc:	4013      	ands	r3, r2
 8000bce:	b29b      	uxth	r3, r3
 8000bd0:	2b00      	cmp	r3, #0
 8000bd2:	d002      	beq.n	8000bda <USART_GetFlagStatus+0x26>
  {
    bitstatus = SET;
 8000bd4:	2301      	movs	r3, #1
 8000bd6:	73fb      	strb	r3, [r7, #15]
 8000bd8:	e001      	b.n	8000bde <USART_GetFlagStatus+0x2a>
  }
  else
  {
    bitstatus = RESET;
 8000bda:	2300      	movs	r3, #0
 8000bdc:	73fb      	strb	r3, [r7, #15]
  }
  return bitstatus;
 8000bde:	7bfb      	ldrb	r3, [r7, #15]
}
 8000be0:	4618      	mov	r0, r3
 8000be2:	3714      	adds	r7, #20
 8000be4:	46bd      	mov	sp, r7
 8000be6:	bc80      	pop	{r7}
 8000be8:	4770      	bx	lr
 8000bea:	bf00      	nop

08000bec <Reset_Handler>:
  .weak  Reset_Handler
  .type  Reset_Handler, %function
Reset_Handler:  

/* Copy the data segment initializers from flash to SRAM */  
  movs  r1, #0
 8000bec:	2100      	movs	r1, #0
  b  LoopCopyDataInit
 8000bee:	e003      	b.n	8000bf8 <LoopCopyDataInit>

08000bf0 <CopyDataInit>:

CopyDataInit:
  ldr  r3, =_sidata
 8000bf0:	4b0a      	ldr	r3, [pc, #40]	; (8000c1c <LoopFillZerobss+0x10>)
  ldr  r3, [r3, r1]
 8000bf2:	585b      	ldr	r3, [r3, r1]
  str  r3, [r0, r1]
 8000bf4:	5043      	str	r3, [r0, r1]
  adds  r1, r1, #4
 8000bf6:	3104      	adds	r1, #4

08000bf8 <LoopCopyDataInit>:
    
LoopCopyDataInit:
  ldr  r0, =_sdata
 8000bf8:	4809      	ldr	r0, [pc, #36]	; (8000c20 <LoopFillZerobss+0x14>)
  ldr  r3, =_edata
 8000bfa:	4b0a      	ldr	r3, [pc, #40]	; (8000c24 <LoopFillZerobss+0x18>)
  adds  r2, r0, r1
 8000bfc:	1842      	adds	r2, r0, r1
  cmp  r2, r3
 8000bfe:	429a      	cmp	r2, r3
  bcc  CopyDataInit
 8000c00:	d3f6      	bcc.n	8000bf0 <CopyDataInit>
  ldr  r2, =_sbss
 8000c02:	4a09      	ldr	r2, [pc, #36]	; (8000c28 <LoopFillZerobss+0x1c>)
  b  LoopFillZerobss
 8000c04:	e002      	b.n	8000c0c <LoopFillZerobss>

08000c06 <FillZerobss>:
/* Zero fill the bss segment. */  
FillZerobss:
  movs  r3, #0
 8000c06:	2300      	movs	r3, #0
  str  r3, [r2], #4
 8000c08:	f842 3b04 	str.w	r3, [r2], #4

08000c0c <LoopFillZerobss>:
    
LoopFillZerobss:
  ldr  r3, = _ebss
 8000c0c:	4b07      	ldr	r3, [pc, #28]	; (8000c2c <LoopFillZerobss+0x20>)
  cmp  r2, r3
 8000c0e:	429a      	cmp	r2, r3
  bcc  FillZerobss
 8000c10:	d3f9      	bcc.n	8000c06 <FillZerobss>
/* Call the clock system intitialization function.*/
  bl  SystemInit   
 8000c12:	f7ff fbe3 	bl	80003dc <SystemInit>
/* Call the applications entry point.*/
  bl  main
 8000c16:	f7ff fae5 	bl	80001e4 <main>
  bx  lr    
 8000c1a:	4770      	bx	lr
/* Copy the data segment initializers from flash to SRAM */  
  movs  r1, #0
  b  LoopCopyDataInit

CopyDataInit:
  ldr  r3, =_sidata
 8000c1c:	08000c44 	stmdaeq	r0, {r2, r6, sl, fp}
  ldr  r3, [r3, r1]
  str  r3, [r0, r1]
  adds  r1, r1, #4
    
LoopCopyDataInit:
  ldr  r0, =_sdata
 8000c20:	20000000 	andcs	r0, r0, r0
  ldr  r3, =_edata
 8000c24:	20000014 	andcs	r0, r0, r4, lsl r0
  adds  r2, r0, r1
  cmp  r2, r3
  bcc  CopyDataInit
  ldr  r2, =_sbss
 8000c28:	20000014 	andcs	r0, r0, r4, lsl r0
FillZerobss:
  movs  r3, #0
  str  r3, [r2], #4
    
LoopFillZerobss:
  ldr  r3, = _ebss
 8000c2c:	20000014 	andcs	r0, r0, r4, lsl r0

08000c30 <ADC1_2_IRQHandler>:
 * @retval None       
*/
    .section  .text.Default_Handler,"ax",%progbits
Default_Handler:
Infinite_Loop:
  b  Infinite_Loop
 8000c30:	e7fe      	b.n	8000c30 <ADC1_2_IRQHandler>
 8000c32:	0000      	movs	r0, r0
 8000c34:	74736574 	ldrbtvc	r6, [r3], #-1396	; 0xfffffa8c
 8000c38:	31313131 	teqcc	r1, r1, lsr r1
 8000c3c:	31313131 	teqcc	r1, r1, lsr r1
 8000c40:	000a3131 	andeq	r3, sl, r1, lsr r1

Disassembly of section ._usrstack:

20000014 <_susrstack>:
	...
