
========================================================================

** ELF Header Information

    File Name: Objects\test.axf

    Machine class: ELFCLASS32 (32-bit)
    Data encoding: ELFDATA2LSB (Little endian)
    Header version: EV_CURRENT (Current version)
    Operating System ABI: none
    ABI Version: 0
    File Type: ET_EXEC (Executable) (2)
    Machine: EM_ARM (ARM)

    Image Entry point: 0x080000ed
    Flags: EF_ARM_HASENTRY (0x05000002)

    ARM ELF revision: 5 (ABI version 2)

    Built with
    Component: ARM Compiler 5.05 update 2 (build 169) Tool: armasm [4d0f2f]
    Component: ARM Compiler 5.05 update 1 (build 106) Tool: armasm [4d0efa]
    Component: ARM Compiler 5.05 update 2 (build 169) Tool: armlink [4d0f33]
    Component: ARM Compiler 5.05 update 1 (build 106) Tool: armlink [4d0efa]

    Header size: 52 bytes (0x34)
    Program header entry size: 32 bytes (0x20)
    Section header entry size: 40 bytes (0x28)

    Program header entries: 1
    Section header entries: 16

    Program header offset: 427880 (0x00068768)
    Section header offset: 427912 (0x00068788)

    Section header string table index: 15

========================================================================

** Program header #0 (PT_LOAD) [PF_X + PF_W + PF_R + PF_ARM_ENTRY]
    Size : 28368 bytes (11812 bytes in file)
    Virtual address: 0x08000000 (Alignment 8)


========================================================================

** Section #1 'ER_IROM1' (SHT_PROGBITS) [SHF_ALLOC + SHF_EXECINSTR]
    Size   : 11592 bytes (alignment 4)
    Address: 0x08000000

    $d.realdata
    RESET
    __Vectors
        0x08000000:    20004188    .A.     DCD    536887688
        0x08000004:    08000241    A...    DCD    134218305
        0x08000008:    08000249    I...    DCD    134218313
        0x0800000c:    0800024b    K...    DCD    134218315
        0x08000010:    0800024d    M...    DCD    134218317
        0x08000014:    0800024f    O...    DCD    134218319
        0x08000018:    08000251    Q...    DCD    134218321
        0x0800001c:    00000000    ....    DCD    0
        0x08000020:    00000000    ....    DCD    0
        0x08000024:    00000000    ....    DCD    0
        0x08000028:    00000000    ....    DCD    0
        0x0800002c:    08000179    y...    DCD    134218105
        0x08000030:    08000255    U...    DCD    134218325
        0x08000034:    00000000    ....    DCD    0
        0x08000038:    080001f1    ....    DCD    134218225
        0x0800003c:    0800022d    -...    DCD    134218285
        0x08000040:    0800025b    [...    DCD    134218331
        0x08000044:    0800025b    [...    DCD    134218331
        0x08000048:    0800025b    [...    DCD    134218331
        0x0800004c:    0800025b    [...    DCD    134218331
        0x08000050:    0800025b    [...    DCD    134218331
        0x08000054:    0800025b    [...    DCD    134218331
        0x08000058:    0800025b    [...    DCD    134218331
        0x0800005c:    0800025b    [...    DCD    134218331
        0x08000060:    0800025b    [...    DCD    134218331
        0x08000064:    0800025b    [...    DCD    134218331
        0x08000068:    0800025b    [...    DCD    134218331
        0x0800006c:    0800025b    [...    DCD    134218331
        0x08000070:    0800025b    [...    DCD    134218331
        0x08000074:    0800025b    [...    DCD    134218331
        0x08000078:    0800025b    [...    DCD    134218331
        0x0800007c:    0800025b    [...    DCD    134218331
        0x08000080:    0800025b    [...    DCD    134218331
        0x08000084:    0800025b    [...    DCD    134218331
        0x08000088:    0800025b    [...    DCD    134218331
        0x0800008c:    0800025b    [...    DCD    134218331
        0x08000090:    0800025b    [...    DCD    134218331
        0x08000094:    0800025b    [...    DCD    134218331
        0x08000098:    0800025b    [...    DCD    134218331
        0x0800009c:    0800025b    [...    DCD    134218331
        0x080000a0:    0800025b    [...    DCD    134218331
        0x080000a4:    080007d5    ....    DCD    134219733
        0x080000a8:    0800025b    [...    DCD    134218331
        0x080000ac:    0800025b    [...    DCD    134218331
        0x080000b0:    0800025b    [...    DCD    134218331
        0x080000b4:    0800025b    [...    DCD    134218331
        0x080000b8:    0800025b    [...    DCD    134218331
        0x080000bc:    0800025b    [...    DCD    134218331
        0x080000c0:    0800025b    [...    DCD    134218331
        0x080000c4:    0800025b    [...    DCD    134218331
        0x080000c8:    0800025b    [...    DCD    134218331
        0x080000cc:    0800025b    [...    DCD    134218331
        0x080000d0:    0800025b    [...    DCD    134218331
        0x080000d4:    0800082d    -...    DCD    134219821
        0x080000d8:    0800025b    [...    DCD    134218331
        0x080000dc:    0800025b    [...    DCD    134218331
        0x080000e0:    0800025b    [...    DCD    134218331
        0x080000e4:    0800025b    [...    DCD    134218331
        0x080000e8:    0800025b    [...    DCD    134218331
    $t
    .ARM.Collect$$$$00000000
    .ARM.Collect$$$$00000001
    __Vectors_End
    __main
    _main_stk
        0x080000ec:    f8dfd01c    ....    LDR      sp,__lit__00000000 ; [0x800010c] = 0x20004188
    .ARM.Collect$$$$00000004
    _main_scatterload
        0x080000f0:    f000f9ce    ....    BL       __scatterload ; 0x8000490
    .ARM.Collect$$$$000000FF
    .ARM.Collect$$$$00000008
    .ARM.Collect$$$$0000000A
    .ARM.Collect$$$$0000000D
    .ARM.Collect$$$$0000000F
    __main_after_scatterload
    __rt_final_cpp
    __rt_final_exit
    _main_clock
    _main_cpp_init
    _main_init
        0x080000f4:    f001fa2c    ..,.    BL       osKernelInitialize ; 0x8001550
        0x080000f8:    2100        .!      MOVS     r1,#0
        0x080000fa:    4803        .H      LDR      r0,[pc,#12] ; [0x8000108] = 0x2000009c
        0x080000fc:    f001faa2    ....    BL       osThreadCreate ; 0x8001644
        0x08000100:    f001fa38    ..8.    BL       osKernelStart ; 0x8001574
        0x08000104:    e7fe        ..      B        0x8000104 ; __main_after_scatterload + 16
    $d
        0x08000106:    0000        ..      DCW    0
        0x08000108:    2000009c    ...     DCD    536871068
    .ARM.Collect$$$$00002712
    __lit__00000000
        0x0800010c:    20004188    .A.     DCD    536887688
    $t
    .emb_text
    rt_set_PSP
        0x08000110:    f3808809    ....    MSR      PSP,r0
        0x08000114:    4770        pG      BX       lr
    rt_get_PSP
        0x08000116:    f3ef8009    ....    MRS      r0,PSP
        0x0800011a:    4770        pG      BX       lr
    os_set_env
        0x0800011c:    4668        hF      MOV      r0,sp
        0x0800011e:    f3808809    ....    MSR      PSP,r0
        0x08000122:    4804        .H      LDR      r0,[pc,#16] ; [0x8000134] = 0x8002b28
        0x08000124:    7800        .x      LDRB     r0,[r0,#0]
        0x08000126:    07c0        ..      LSLS     r0,r0,#31
        0x08000128:    bf14        ..      ITE      NE
        0x0800012a:    2002        .       MOVNE    r0,#2
        0x0800012c:    2003        .       MOVEQ    r0,#3
        0x0800012e:    f3808814    ....    MSR      CONTROL,r0
        0x08000132:    4770        pG      BX       lr
    $d
        0x08000134:    08002b28    (+..    DCD    134228776
    $t
    _alloc_box
        0x08000138:    f8dfc018    ....    LDR      r12,[pc,#24] ; [0x8000154] = 0x80017a9
        0x0800013c:    f3ef8305    ....    MRS      r3,IPSR
        0x08000140:    061b        ..      LSLS     r3,r3,#24
        0x08000142:    bf18        ..      IT       NE
        0x08000144:    4760        `G      BXNE     r12
        0x08000146:    f3ef8314    ....    MRS      r3,CONTROL
        0x0800014a:    07db        ..      LSLS     r3,r3,#31
        0x0800014c:    bf08        ..      IT       EQ
        0x0800014e:    4760        `G      BXEQ     r12
        0x08000150:    df00        ..      SVC      #0x0 ; formerly SWI
        0x08000152:    4770        pG      BX       lr
    $d
        0x08000154:    080017a9    ....    DCD    134223785
    $t
    _free_box
        0x08000158:    f8dfc018    ....    LDR      r12,[pc,#24] ; [0x8000174] = 0x8001999
        0x0800015c:    f3ef8305    ....    MRS      r3,IPSR
        0x08000160:    061b        ..      LSLS     r3,r3,#24
        0x08000162:    bf18        ..      IT       NE
        0x08000164:    4760        `G      BXNE     r12
        0x08000166:    f3ef8314    ....    MRS      r3,CONTROL
        0x0800016a:    07db        ..      LSLS     r3,r3,#31
        0x0800016c:    bf08        ..      IT       EQ
        0x0800016e:    4760        `G      BXEQ     r12
        0x08000170:    df00        ..      SVC      #0x0 ; formerly SWI
        0x08000172:    4770        pG      BX       lr
    $d
        0x08000174:    08001999    ....    DCD    134224281
    $t
    SVC_Handler
        0x08000178:    f3ef8009    ....    MRS      r0,PSP
        0x0800017c:    6981        .i      LDR      r1,[r0,#0x18]
        0x0800017e:    f8111c02    ....    LDRB     r1,[r1,#-2]
        0x08000182:    b9f1        ..      CBNZ     r1,0x80001c2 ; SVC_Handler + 74
        0x08000184:    e890100f    ....    LDM      r0,{r0-r3,r12}
        0x08000188:    47e0        .G      BLX      r12
        0x0800018a:    f3ef8c09    ....    MRS      r12,PSP
        0x0800018e:    e88c0007    ....    STM      r12,{r0-r2}
        0x08000192:    4b14        .K      LDR      r3,[pc,#80] ; [0x80001e4] = 0x200000b4
        0x08000194:    e8930006    ....    LDM      r3,{r1,r2}
        0x08000198:    4291        .B      CMP      r1,r2
        0x0800019a:    d00f        ..      BEQ      0x80001bc ; SVC_Handler + 68
        0x0800019c:    b139        9.      CBZ      r1,0x80001ae ; SVC_Handler + 54
        0x0800019e:    e92c0ff0    ,...    STMDB    r12!,{r4-r11}
        0x080001a2:    f8c1c028    ..(.    STR      r12,[r1,#0x28]
        0x080001a6:    b40c        ..      PUSH     {r2,r3}
        0x080001a8:    f001ff2c    ..,.    BL       rt_stk_check ; 0x8002004
        0x080001ac:    bc0c        ..      POP      {r2,r3}
        0x080001ae:    601a        .`      STR      r2,[r3,#0]
        0x080001b0:    f8d2c028    ..(.    LDR      r12,[r2,#0x28]
        0x080001b4:    e8bc0ff0    ....    LDM      r12!,{r4-r11}
        0x080001b8:    f38c8809    ....    MSR      PSP,r12
        0x080001bc:    f06f0e02    o...    MVN      lr,#2
        0x080001c0:    4770        pG      BX       lr
        0x080001c2:    b510        ..      PUSH     {r4,lr}
        0x080001c4:    4a08        .J      LDR      r2,[pc,#32] ; [0x80001e8] = 0x80004d0
        0x080001c6:    6812        .h      LDR      r2,[r2,#0]
        0x080001c8:    4291        .B      CMP      r1,r2
        0x080001ca:    d809        ..      BHI      0x80001e0 ; SVC_Handler + 104
        0x080001cc:    4c07        .L      LDR      r4,[pc,#28] ; [0x80001ec] = 0x80004d0
        0x080001ce:    f8544021    T.!@    LDR      r4,[r4,r1,LSL #2]
        0x080001d2:    e890100f    ....    LDM      r0,{r0-r3,r12}
        0x080001d6:    47a0        .G      BLX      r4
        0x080001d8:    f3ef8c09    ....    MRS      r12,PSP
        0x080001dc:    e88c000f    ....    STM      r12,{r0-r3}
        0x080001e0:    bd10        ..      POP      {r4,pc}
    $d
        0x080001e2:    0000        ..      DCW    0
        0x080001e4:    200000b4    ...     DCD    536871092
        0x080001e8:    080004d0    ....    DCD    134218960
        0x080001ec:    080004d0    ....    DCD    134218960
    $t
    PendSV_Handler
        0x080001f0:    f001fdda    ....    BL       rt_pop_req ; 0x8001da8
        0x080001f4:    4b0c        .K      LDR      r3,[pc,#48] ; [0x8000228] = 0x200000b4
        0x080001f6:    e8930006    ....    LDM      r3,{r1,r2}
        0x080001fa:    4291        .B      CMP      r1,r2
        0x080001fc:    d010        ..      BEQ      0x8000220 ; PendSV_Handler + 48
        0x080001fe:    f3ef8c09    ....    MRS      r12,PSP
        0x08000202:    e92c0ff0    ,...    STMDB    r12!,{r4-r11}
        0x08000206:    f8c1c028    ..(.    STR      r12,[r1,#0x28]
        0x0800020a:    b40c        ..      PUSH     {r2,r3}
        0x0800020c:    f001fefa    ....    BL       rt_stk_check ; 0x8002004
        0x08000210:    bc0c        ..      POP      {r2,r3}
        0x08000212:    601a        .`      STR      r2,[r3,#0]
        0x08000214:    f8d2c028    ..(.    LDR      r12,[r2,#0x28]
        0x08000218:    e8bc0ff0    ....    LDM      r12!,{r4-r11}
        0x0800021c:    f38c8809    ....    MSR      PSP,r12
        0x08000220:    f06f0e02    o...    MVN      lr,#2
        0x08000224:    4770        pG      BX       lr
    $d
        0x08000226:    0000        ..      DCW    0
        0x08000228:    200000b4    ...     DCD    536871092
    $t
    SysTick_Handler
        0x0800022c:    f001ffb2    ....    BL       rt_systick ; 0x8002194
        0x08000230:    e7e0        ..      B        0x80001f4 ; PendSV_Handler + 4
    $d
        0x08000232:    0000        ..      DCW    0
    $t
    OS_Tick_Handler
        0x08000234:    f001fa84    ....    BL       os_tick_irqack ; 0x8001740
        0x08000238:    f001ffac    ....    BL       rt_systick ; 0x8002194
        0x0800023c:    e7da        ..      B        0x80001f4 ; PendSV_Handler + 4
    $d
        0x0800023e:    0000        ..      DCW    0
    $t
    .text
    Reset_Handler
        0x08000240:    4806        .H      LDR      r0,[pc,#24] ; [0x800025c] = 0x8000775
        0x08000242:    4780        .G      BLX      r0
        0x08000244:    4806        .H      LDR      r0,[pc,#24] ; [0x8000260] = 0x80000ed
        0x08000246:    4700        .G      BX       r0
    NMI_Handler
        0x08000248:    e7fe        ..      B        NMI_Handler ; 0x8000248
    HardFault_Handler
        0x0800024a:    e7fe        ..      B        HardFault_Handler ; 0x800024a
    MemManage_Handler
        0x0800024c:    e7fe        ..      B        MemManage_Handler ; 0x800024c
    BusFault_Handler
        0x0800024e:    e7fe        ..      B        BusFault_Handler ; 0x800024e
    UsageFault_Handler
        0x08000250:    e7fe        ..      B        UsageFault_Handler ; 0x8000250
        0x08000252:    e7fe        ..      B        0x8000252 ; UsageFault_Handler + 2
    DebugMon_Handler
        0x08000254:    e7fe        ..      B        DebugMon_Handler ; 0x8000254
        0x08000256:    e7fe        ..      B        0x8000256 ; DebugMon_Handler + 2
        0x08000258:    e7fe        ..      B        0x8000258 ; DebugMon_Handler + 4
    ADC1_2_IRQHandler
    CAN1_RX1_IRQHandler
    CAN1_SCE_IRQHandler
    DMA1_Channel1_IRQHandler
    DMA1_Channel2_IRQHandler
    DMA1_Channel3_IRQHandler
    DMA1_Channel4_IRQHandler
    DMA1_Channel5_IRQHandler
    DMA1_Channel6_IRQHandler
    DMA1_Channel7_IRQHandler
    EXTI0_IRQHandler
    EXTI15_10_IRQHandler
    EXTI1_IRQHandler
    EXTI2_IRQHandler
    EXTI3_IRQHandler
    EXTI4_IRQHandler
    EXTI9_5_IRQHandler
    FLASH_IRQHandler
    I2C1_ER_IRQHandler
    I2C1_EV_IRQHandler
    I2C2_ER_IRQHandler
    I2C2_EV_IRQHandler
    PVD_IRQHandler
    RCC_IRQHandler
    RTCAlarm_IRQHandler
    RTC_IRQHandler
    SPI1_IRQHandler
    SPI2_IRQHandler
    TAMPER_IRQHandler
    TIM1_BRK_IRQHandler
    TIM1_CC_IRQHandler
    TIM1_TRG_COM_IRQHandler
    TIM2_IRQHandler
    TIM3_IRQHandler
    TIM4_IRQHandler
    USART2_IRQHandler
    USART3_IRQHandler
    USBWakeUp_IRQHandler
    USB_HP_CAN1_TX_IRQHandler
    USB_LP_CAN1_RX0_IRQHandler
    WWDG_IRQHandler
        0x0800025a:    e7fe        ..      B        ADC1_2_IRQHandler ; 0x800025a
    $d
        0x0800025c:    08000775    u...    DCD    134219637
        0x08000260:    080000ed    ....    DCD    134217965
    $t
    .text
    __aeabi_uldivmod
        0x08000264:    e92d5ff0    -.._    PUSH     {r4-r12,lr}
        0x08000268:    4605        .F      MOV      r5,r0
        0x0800026a:    2000        .       MOVS     r0,#0
        0x0800026c:    4692        .F      MOV      r10,r2
        0x0800026e:    469b        .F      MOV      r11,r3
        0x08000270:    4688        .F      MOV      r8,r1
        0x08000272:    4606        .F      MOV      r6,r0
        0x08000274:    4681        .F      MOV      r9,r0
        0x08000276:    2440        @$      MOVS     r4,#0x40
        0x08000278:    e01b        ..      B        0x80002b2 ; __aeabi_uldivmod + 78
        0x0800027a:    4628        (F      MOV      r0,r5
        0x0800027c:    4641        AF      MOV      r1,r8
        0x0800027e:    4647        GF      MOV      r7,r8
        0x08000280:    4622        "F      MOV      r2,r4
        0x08000282:    f000f8a0    ....    BL       __aeabi_llsr ; 0x80003c6
        0x08000286:    4653        SF      MOV      r3,r10
        0x08000288:    465a        ZF      MOV      r2,r11
        0x0800028a:    1ac0        ..      SUBS     r0,r0,r3
        0x0800028c:    4191        .A      SBCS     r1,r1,r2
        0x0800028e:    d310        ..      BCC      0x80002b2 ; __aeabi_uldivmod + 78
        0x08000290:    4611        .F      MOV      r1,r2
        0x08000292:    4618        .F      MOV      r0,r3
        0x08000294:    4622        "F      MOV      r2,r4
        0x08000296:    f000f887    ....    BL       __aeabi_llsl ; 0x80003a8
        0x0800029a:    1a2d        -.      SUBS     r5,r5,r0
        0x0800029c:    eb670801    g...    SBC      r8,r7,r1
        0x080002a0:    464f        OF      MOV      r7,r9
        0x080002a2:    4622        "F      MOV      r2,r4
        0x080002a4:    2001        .       MOVS     r0,#1
        0x080002a6:    2100        .!      MOVS     r1,#0
        0x080002a8:    f000f87e    ..~.    BL       __aeabi_llsl ; 0x80003a8
        0x080002ac:    eb170900    ....    ADDS     r9,r7,r0
        0x080002b0:    414e        NA      ADCS     r6,r6,r1
        0x080002b2:    1e20         .      SUBS     r0,r4,#0
        0x080002b4:    f1a40401    ....    SUB      r4,r4,#1
        0x080002b8:    dcdf        ..      BGT      0x800027a ; __aeabi_uldivmod + 22
        0x080002ba:    4648        HF      MOV      r0,r9
        0x080002bc:    4631        1F      MOV      r1,r6
        0x080002be:    462a        *F      MOV      r2,r5
        0x080002c0:    4643        CF      MOV      r3,r8
        0x080002c2:    e8bd9ff0    ....    POP      {r4-r12,pc}
    .text
    __aeabi_memcpy
    __aeabi_memcpy4
    __aeabi_memcpy8
        0x080002c6:    ea400301    @...    ORR      r3,r0,r1
        0x080002ca:    079b        ..      LSLS     r3,r3,#30
        0x080002cc:    d003        ..      BEQ      0x80002d6 ; __aeabi_memcpy + 16
        0x080002ce:    e009        ..      B        0x80002e4 ; __aeabi_memcpy + 30
        0x080002d0:    c908        ..      LDM      r1!,{r3}
        0x080002d2:    1f12        ..      SUBS     r2,r2,#4
        0x080002d4:    c008        ..      STM      r0!,{r3}
        0x080002d6:    2a04        .*      CMP      r2,#4
        0x080002d8:    d2fa        ..      BCS      0x80002d0 ; __aeabi_memcpy + 10
        0x080002da:    e003        ..      B        0x80002e4 ; __aeabi_memcpy + 30
        0x080002dc:    f8113b01    ...;    LDRB     r3,[r1],#1
        0x080002e0:    f8003b01    ...;    STRB     r3,[r0],#1
        0x080002e4:    1e52        R.      SUBS     r2,r2,#1
        0x080002e6:    d2f9        ..      BCS      0x80002dc ; __aeabi_memcpy + 22
        0x080002e8:    4770        pG      BX       lr
    .text
    __aeabi_memset
    __aeabi_memset4
    __aeabi_memset8
        0x080002ea:    b2d2        ..      UXTB     r2,r2
        0x080002ec:    e001        ..      B        0x80002f2 ; __aeabi_memset + 8
        0x080002ee:    f8002b01    ...+    STRB     r2,[r0],#1
        0x080002f2:    1e49        I.      SUBS     r1,r1,#1
        0x080002f4:    d2fb        ..      BCS      0x80002ee ; __aeabi_memset + 4
        0x080002f6:    4770        pG      BX       lr
    __aeabi_memclr
    __aeabi_memclr4
    __aeabi_memclr8
        0x080002f8:    2200        ."      MOVS     r2,#0
        0x080002fa:    e7f6        ..      B        __aeabi_memset ; 0x80002ea
    _memset$wrapper
        0x080002fc:    b510        ..      PUSH     {r4,lr}
        0x080002fe:    4613        .F      MOV      r3,r2
        0x08000300:    460a        .F      MOV      r2,r1
        0x08000302:    4604        .F      MOV      r4,r0
        0x08000304:    4619        .F      MOV      r1,r3
        0x08000306:    f7fffff0    ....    BL       __aeabi_memset ; 0x80002ea
        0x0800030a:    4620         F      MOV      r0,r4
        0x0800030c:    bd10        ..      POP      {r4,pc}
    .text
    strlen
        0x0800030e:    1c42        B.      ADDS     r2,r0,#1
        0x08000310:    f8101b01    ....    LDRB     r1,[r0],#1
        0x08000314:    2900        .)      CMP      r1,#0
        0x08000316:    d1fb        ..      BNE      0x8000310 ; strlen + 2
        0x08000318:    1a80        ..      SUBS     r0,r0,r2
        0x0800031a:    4770        pG      BX       lr
    .text
    strcmp
        0x0800031c:    b510        ..      PUSH     {r4,lr}
        0x0800031e:    2200        ."      MOVS     r2,#0
        0x08000320:    e000        ..      B        0x8000324 ; strcmp + 8
        0x08000322:    1c52        R.      ADDS     r2,r2,#1
        0x08000324:    5c83        .\      LDRB     r3,[r0,r2]
        0x08000326:    5c8c        .\      LDRB     r4,[r1,r2]
        0x08000328:    42a3        .B      CMP      r3,r4
        0x0800032a:    d101        ..      BNE      0x8000330 ; strcmp + 20
        0x0800032c:    2b00        .+      CMP      r3,#0
        0x0800032e:    d1f8        ..      BNE      0x8000322 ; strcmp + 6
        0x08000330:    b2d8        ..      UXTB     r0,r3
        0x08000332:    b2e1        ..      UXTB     r1,r4
        0x08000334:    1a40        @.      SUBS     r0,r0,r1
        0x08000336:    bd10        ..      POP      {r4,pc}
    .text
    strtol
        0x08000338:    e92d47f0    -..G    PUSH     {r4-r10,lr}
        0x0800033c:    4691        .F      MOV      r9,r2
        0x0800033e:    460f        .F      MOV      r7,r1
        0x08000340:    4680        .F      MOV      r8,r0
        0x08000342:    4604        .F      MOV      r4,r0
        0x08000344:    2600        .&      MOVS     r6,#0
        0x08000346:    f8145b01    ...[    LDRB     r5,[r4],#1
        0x0800034a:    b12d        -.      CBZ      r5,0x8000358 ; strtol + 32
        0x0800034c:    f000f84c    ..L.    BL       __rt_ctype_table ; 0x80003e8
        0x08000350:    6800        .h      LDR      r0,[r0,#0]
        0x08000352:    5d40        @]      LDRB     r0,[r0,r5]
        0x08000354:    07c0        ..      LSLS     r0,r0,#31
        0x08000356:    d1f6        ..      BNE      0x8000346 ; strtol + 14
        0x08000358:    2d2b        +-      CMP      r5,#0x2b
        0x0800035a:    d002        ..      BEQ      0x8000362 ; strtol + 42
        0x0800035c:    2d2d        --      CMP      r5,#0x2d
        0x0800035e:    d018        ..      BEQ      0x8000392 ; strtol + 90
        0x08000360:    1e64        d.      SUBS     r4,r4,#1
        0x08000362:    464a        JF      MOV      r2,r9
        0x08000364:    4639        9F      MOV      r1,r7
        0x08000366:    4620         F      MOV      r0,r4
        0x08000368:    f000f842    ..B.    BL       _strtoul ; 0x80003f0
        0x0800036c:    b127        '.      CBZ      r7,0x8000378 ; strtol + 64
        0x0800036e:    6839        9h      LDR      r1,[r7,#0]
        0x08000370:    42a1        .B      CMP      r1,r4
        0x08000372:    d101        ..      BNE      0x8000378 ; strtol + 64
        0x08000374:    f8c78000    ....    STR      r8,[r7,#0]
        0x08000378:    0571        q.      LSLS     r1,r6,#21
        0x0800037a:    f04f0402    O...    MOV      r4,#2
        0x0800037e:    d50b        ..      BPL      0x8000398 ; strtol + 96
        0x08000380:    4240        @B      RSBS     r0,r0,#0
        0x08000382:    2800        .(      CMP      r0,#0
        0x08000384:    dd03        ..      BLE      0x800038e ; strtol + 86
        0x08000386:    f000fb55    ..U.    BL       __aeabi_errno_addr ; 0x8000a34
        0x0800038a:    6004        .`      STR      r4,[r0,#0]
        0x0800038c:    07a0        ..      LSLS     r0,r4,#30
        0x0800038e:    e8bd87f0    ....    POP      {r4-r10,pc}
        0x08000392:    f4466680    F..f    ORR      r6,r6,#0x400
        0x08000396:    e7e4        ..      B        0x8000362 ; strtol + 42
        0x08000398:    2800        .(      CMP      r0,#0
        0x0800039a:    daf8        ..      BGE      0x800038e ; strtol + 86
        0x0800039c:    f000fb4a    ..J.    BL       __aeabi_errno_addr ; 0x8000a34
        0x080003a0:    6004        .`      STR      r4,[r0,#0]
        0x080003a2:    f06f4000    o..@    MVN      r0,#0x80000000
        0x080003a6:    e7f2        ..      B        0x800038e ; strtol + 86
    .text
    __aeabi_llsl
    _ll_shift_l
        0x080003a8:    2a20         *      CMP      r2,#0x20
        0x080003aa:    db04        ..      BLT      0x80003b6 ; __aeabi_llsl + 14
        0x080003ac:    3a20         :      SUBS     r2,r2,#0x20
        0x080003ae:    fa00f102    ....    LSL      r1,r0,r2
        0x080003b2:    2000        .       MOVS     r0,#0
        0x080003b4:    4770        pG      BX       lr
        0x080003b6:    4091        .@      LSLS     r1,r1,r2
        0x080003b8:    f1c20320    .. .    RSB      r3,r2,#0x20
        0x080003bc:    fa20f303     ...    LSR      r3,r0,r3
        0x080003c0:    4319        .C      ORRS     r1,r1,r3
        0x080003c2:    4090        .@      LSLS     r0,r0,r2
        0x080003c4:    4770        pG      BX       lr
    .text
    __aeabi_llsr
    _ll_ushift_r
        0x080003c6:    2a20         *      CMP      r2,#0x20
        0x080003c8:    db04        ..      BLT      0x80003d4 ; __aeabi_llsr + 14
        0x080003ca:    3a20         :      SUBS     r2,r2,#0x20
        0x080003cc:    fa21f002    !...    LSR      r0,r1,r2
        0x080003d0:    2100        .!      MOVS     r1,#0
        0x080003d2:    4770        pG      BX       lr
        0x080003d4:    fa21f302    !...    LSR      r3,r1,r2
        0x080003d8:    40d0        .@      LSRS     r0,r0,r2
        0x080003da:    f1c20220    .. .    RSB      r2,r2,#0x20
        0x080003de:    4091        .@      LSLS     r1,r1,r2
        0x080003e0:    4308        .C      ORRS     r0,r0,r1
        0x080003e2:    4619        .F      MOV      r1,r3
        0x080003e4:    4770        pG      BX       lr
        0x080003e6:    0000        ..      MOVS     r0,r0
    .text
    __rt_ctype_table
        0x080003e8:    4800        .H      LDR      r0,[pc,#0] ; [0x80003ec] = 0x8002bf0
        0x080003ea:    4770        pG      BX       lr
    $d
        0x080003ec:    08002bf0    .+..    DCD    134228976
    $t
    .text
    _strtoul
        0x080003f0:    e92d5ff0    -.._    PUSH     {r4-r12,lr}
        0x080003f4:    4682        .F      MOV      r10,r0
        0x080003f6:    7800        .x      LDRB     r0,[r0,#0]
        0x080003f8:    2700        .'      MOVS     r7,#0
        0x080003fa:    4615        .F      MOV      r5,r2
        0x080003fc:    468b        .F      MOV      r11,r1
        0x080003fe:    f10a0401    ....    ADD      r4,r10,#1
        0x08000402:    46b9        .F      MOV      r9,r7
        0x08000404:    2830        0(      CMP      r0,#0x30
        0x08000406:    d001        ..      BEQ      0x800040c ; _strtoul + 28
        0x08000408:    b19d        ..      CBZ      r5,0x8000432 ; _strtoul + 66
        0x0800040a:    e013        ..      B        0x8000434 ; _strtoul + 68
        0x0800040c:    f8140b01    ....    LDRB     r0,[r4],#1
        0x08000410:    2701        .'      MOVS     r7,#1
        0x08000412:    2878        x(      CMP      r0,#0x78
        0x08000414:    d003        ..      BEQ      0x800041e ; _strtoul + 46
        0x08000416:    2858        X(      CMP      r0,#0x58
        0x08000418:    d001        ..      BEQ      0x800041e ; _strtoul + 46
        0x0800041a:    b145        E.      CBZ      r5,0x800042e ; _strtoul + 62
        0x0800041c:    e00a        ..      B        0x8000434 ; _strtoul + 68
        0x0800041e:    b10d        ..      CBZ      r5,0x8000424 ; _strtoul + 52
        0x08000420:    2d10        .-      CMP      r5,#0x10
        0x08000422:    d107        ..      BNE      0x8000434 ; _strtoul + 68
        0x08000424:    2700        .'      MOVS     r7,#0
        0x08000426:    2510        .%      MOVS     r5,#0x10
        0x08000428:    f8140b01    ....    LDRB     r0,[r4],#1
        0x0800042c:    e002        ..      B        0x8000434 ; _strtoul + 68
        0x0800042e:    2508        .%      MOVS     r5,#8
        0x08000430:    e000        ..      B        0x8000434 ; _strtoul + 68
        0x08000432:    250a        .%      MOVS     r5,#0xa
        0x08000434:    2600        .&      MOVS     r6,#0
        0x08000436:    46b0        .F      MOV      r8,r6
        0x08000438:    e00e        ..      B        0x8000458 ; _strtoul + 104
        0x0800043a:    fb050008    ....    MLA      r0,r5,r8,r0
        0x0800043e:    fb05f106    ....    MUL      r1,r5,r6
        0x08000442:    2701        .'      MOVS     r7,#1
        0x08000444:    eb014610    ...F    ADD      r6,r1,r0,LSR #16
        0x08000448:    fa1ff880    ....    UXTH     r8,r0
        0x0800044c:    f5b63f80    ...?    CMP      r6,#0x10000
        0x08000450:    d300        ..      BCC      0x8000454 ; _strtoul + 100
        0x08000452:    46b9        .F      MOV      r9,r7
        0x08000454:    f8140b01    ....    LDRB     r0,[r4],#1
        0x08000458:    4629        )F      MOV      r1,r5
        0x0800045a:    f000f82b    ..+.    BL       _chval ; 0x80004b4
        0x0800045e:    2800        .(      CMP      r0,#0
        0x08000460:    daeb        ..      BGE      0x800043a ; _strtoul + 74
        0x08000462:    f1bb0f00    ....    CMP      r11,#0
        0x08000466:    d005        ..      BEQ      0x8000474 ; _strtoul + 132
        0x08000468:    b10f        ..      CBZ      r7,0x800046e ; _strtoul + 126
        0x0800046a:    1e64        d.      SUBS     r4,r4,#1
        0x0800046c:    e000        ..      B        0x8000470 ; _strtoul + 128
        0x0800046e:    4654        TF      MOV      r4,r10
        0x08000470:    f8cb4000    ...@    STR      r4,[r11,#0]
        0x08000474:    f1b90f00    ....    CMP      r9,#0
        0x08000478:    d006        ..      BEQ      0x8000488 ; _strtoul + 152
        0x0800047a:    f000fadb    ....    BL       __aeabi_errno_addr ; 0x8000a34
        0x0800047e:    2102        .!      MOVS     r1,#2
        0x08000480:    6001        .`      STR      r1,[r0,#0]
        0x08000482:    1ec8        ..      SUBS     r0,r1,#3
        0x08000484:    e8bd9ff0    ....    POP      {r4-r12,pc}
        0x08000488:    ea484006    H..@    ORR      r0,r8,r6,LSL #16
        0x0800048c:    e7fa        ..      B        0x8000484 ; _strtoul + 148
        0x0800048e:    0000        ..      MOVS     r0,r0
    .text
    __scatterload
    __scatterload_rt2
        0x08000490:    4c06        .L      LDR      r4,[pc,#24] ; [0x80004ac] = 0x8002d28
        0x08000492:    4d07        .M      LDR      r5,[pc,#28] ; [0x80004b0] = 0x8002d48
        0x08000494:    e006        ..      B        0x80004a4 ; __scatterload + 20
        0x08000496:    68e0        .h      LDR      r0,[r4,#0xc]
        0x08000498:    f0400301    @...    ORR      r3,r0,#1
        0x0800049c:    e8940007    ....    LDM      r4,{r0-r2}
        0x080004a0:    4798        .G      BLX      r3
        0x080004a2:    3410        .4      ADDS     r4,r4,#0x10
        0x080004a4:    42ac        .B      CMP      r4,r5
        0x080004a6:    d3f6        ..      BCC      0x8000496 ; __scatterload + 6
        0x080004a8:    f7fffe24    ..$.    BL       __main_after_scatterload ; 0x80000f4
    $d
        0x080004ac:    08002d28    (-..    DCD    134229288
        0x080004b0:    08002d48    H-..    DCD    134229320
    $t
    .text
    _chval
        0x080004b4:    283a        :(      CMP      r0,#0x3a
        0x080004b6:    d200        ..      BCS      0x80004ba ; _chval + 6
        0x080004b8:    3830        08      SUBS     r0,r0,#0x30
        0x080004ba:    f0200220     . .    BIC      r2,r0,#0x20
        0x080004be:    2a41        A*      CMP      r2,#0x41
        0x080004c0:    d301        ..      BCC      0x80004c6 ; _chval + 18
        0x080004c2:    f1a20037    ..7.    SUB      r0,r2,#0x37
        0x080004c6:    4288        .B      CMP      r0,r1
        0x080004c8:    d301        ..      BCC      0x80004ce ; _chval + 26
        0x080004ca:    f04f30ff    O..0    MOV      r0,#0xffffffff
        0x080004ce:    4770        pG      BX       lr
    $d
    SVC_TABLE
    SVC_Count
        0x080004d0:    00000000    ....    DCD    0
    $t
    i.GPIO_Init
    GPIO_Init
    SVC_Table
        0x080004d4:    e92d41f0    -..A    PUSH     {r4-r8,lr}
        0x080004d8:    4602        .F      MOV      r2,r0
        0x080004da:    2500        .%      MOVS     r5,#0
        0x080004dc:    2600        .&      MOVS     r6,#0
        0x080004de:    2000        .       MOVS     r0,#0
        0x080004e0:    2300        .#      MOVS     r3,#0
        0x080004e2:    2400        .$      MOVS     r4,#0
        0x080004e4:    2700        .'      MOVS     r7,#0
        0x080004e6:    f891c003    ....    LDRB     r12,[r1,#3]
        0x080004ea:    f00c050f    ....    AND      r5,r12,#0xf
        0x080004ee:    f891c003    ....    LDRB     r12,[r1,#3]
        0x080004f2:    f00c0c10    ....    AND      r12,r12,#0x10
        0x080004f6:    f1bc0f00    ....    CMP      r12,#0
        0x080004fa:    d003        ..      BEQ      0x8000504 ; GPIO_Init + 48
        0x080004fc:    f891c002    ....    LDRB     r12,[r1,#2]
        0x08000500:    ea4c0505    L...    ORR      r5,r12,r5
        0x08000504:    f891c000    ....    LDRB     r12,[r1,#0]
        0x08000508:    f1bc0f00    ....    CMP      r12,#0
        0x0800050c:    d031        1.      BEQ      0x8000572 ; GPIO_Init + 158
        0x0800050e:    6814        .h      LDR      r4,[r2,#0]
        0x08000510:    2000        .       MOVS     r0,#0
        0x08000512:    e02b        +.      B        0x800056c ; GPIO_Init + 152
        0x08000514:    f04f0c01    O...    MOV      r12,#1
        0x08000518:    fa0cf300    ....    LSL      r3,r12,r0
        0x0800051c:    f8b1c000    ....    LDRH     r12,[r1,#0]
        0x08000520:    ea0c0603    ....    AND      r6,r12,r3
        0x08000524:    429e        .B      CMP      r6,r3
        0x08000526:    d120         .      BNE      0x800056a ; GPIO_Init + 150
        0x08000528:    0083        ..      LSLS     r3,r0,#2
        0x0800052a:    f04f0c0f    O...    MOV      r12,#0xf
        0x0800052e:    fa0cf703    ....    LSL      r7,r12,r3
        0x08000532:    43bc        .C      BICS     r4,r4,r7
        0x08000534:    fa05fc03    ....    LSL      r12,r5,r3
        0x08000538:    ea4c0404    L...    ORR      r4,r12,r4
        0x0800053c:    f891c003    ....    LDRB     r12,[r1,#3]
        0x08000540:    f1bc0f28    ..(.    CMP      r12,#0x28
        0x08000544:    d106        ..      BNE      0x8000554 ; GPIO_Init + 128
        0x08000546:    f04f0c01    O...    MOV      r12,#1
        0x0800054a:    fa0cfc00    ....    LSL      r12,r12,r0
        0x0800054e:    f8c2c014    ....    STR      r12,[r2,#0x14]
        0x08000552:    e00a        ..      B        0x800056a ; GPIO_Init + 150
        0x08000554:    f891c003    ....    LDRB     r12,[r1,#3]
        0x08000558:    f1bc0f48    ..H.    CMP      r12,#0x48
        0x0800055c:    d105        ..      BNE      0x800056a ; GPIO_Init + 150
        0x0800055e:    f04f0c01    O...    MOV      r12,#1
        0x08000562:    fa0cfc00    ....    LSL      r12,r12,r0
        0x08000566:    f8c2c010    ....    STR      r12,[r2,#0x10]
        0x0800056a:    1c40        @.      ADDS     r0,r0,#1
        0x0800056c:    2808        .(      CMP      r0,#8
        0x0800056e:    d3d1        ..      BCC      0x8000514 ; GPIO_Init + 64
        0x08000570:    6014        .`      STR      r4,[r2,#0]
        0x08000572:    f8b1c000    ....    LDRH     r12,[r1,#0]
        0x08000576:    f1bc0fff    ....    CMP      r12,#0xff
        0x0800057a:    dd34        4.      BLE      0x80005e6 ; GPIO_Init + 274
        0x0800057c:    6854        Th      LDR      r4,[r2,#4]
        0x0800057e:    2000        .       MOVS     r0,#0
        0x08000580:    e02e        ..      B        0x80005e0 ; GPIO_Init + 268
        0x08000582:    f1000c08    ....    ADD      r12,r0,#8
        0x08000586:    f04f0801    O...    MOV      r8,#1
        0x0800058a:    fa08f30c    ....    LSL      r3,r8,r12
        0x0800058e:    f8b1c000    ....    LDRH     r12,[r1,#0]
        0x08000592:    ea0c0603    ....    AND      r6,r12,r3
        0x08000596:    429e        .B      CMP      r6,r3
        0x08000598:    d121        !.      BNE      0x80005de ; GPIO_Init + 266
        0x0800059a:    0083        ..      LSLS     r3,r0,#2
        0x0800059c:    f04f0c0f    O...    MOV      r12,#0xf
        0x080005a0:    fa0cf703    ....    LSL      r7,r12,r3
        0x080005a4:    43bc        .C      BICS     r4,r4,r7
        0x080005a6:    fa05fc03    ....    LSL      r12,r5,r3
        0x080005aa:    ea4c0404    L...    ORR      r4,r12,r4
        0x080005ae:    f891c003    ....    LDRB     r12,[r1,#3]
        0x080005b2:    f1bc0f28    ..(.    CMP      r12,#0x28
        0x080005b6:    d105        ..      BNE      0x80005c4 ; GPIO_Init + 240
        0x080005b8:    f1000c08    ....    ADD      r12,r0,#8
        0x080005bc:    fa08f80c    ....    LSL      r8,r8,r12
        0x080005c0:    f8c28014    ....    STR      r8,[r2,#0x14]
        0x080005c4:    f891c003    ....    LDRB     r12,[r1,#3]
        0x080005c8:    f1bc0f48    ..H.    CMP      r12,#0x48
        0x080005cc:    d107        ..      BNE      0x80005de ; GPIO_Init + 266
        0x080005ce:    f1000c08    ....    ADD      r12,r0,#8
        0x080005d2:    f04f0801    O...    MOV      r8,#1
        0x080005d6:    fa08f80c    ....    LSL      r8,r8,r12
        0x080005da:    f8c28010    ....    STR      r8,[r2,#0x10]
        0x080005de:    1c40        @.      ADDS     r0,r0,#1
        0x080005e0:    2808        .(      CMP      r0,#8
        0x080005e2:    d3ce        ..      BCC      0x8000582 ; GPIO_Init + 174
        0x080005e4:    6054        T`      STR      r4,[r2,#4]
        0x080005e6:    e8bd81f0    ....    POP      {r4-r8,pc}
    i.GPIO_ReadInputDataBit
    GPIO_ReadInputDataBit
        0x080005ea:    4602        .F      MOV      r2,r0
        0x080005ec:    2000        .       MOVS     r0,#0
        0x080005ee:    6893        .h      LDR      r3,[r2,#8]
        0x080005f0:    400b        .@      ANDS     r3,r3,r1
        0x080005f2:    b10b        ..      CBZ      r3,0x80005f8 ; GPIO_ReadInputDataBit + 14
        0x080005f4:    2001        .       MOVS     r0,#1
        0x080005f6:    e000        ..      B        0x80005fa ; GPIO_ReadInputDataBit + 16
        0x080005f8:    2000        .       MOVS     r0,#0
        0x080005fa:    4770        pG      BX       lr
    i.GPIO_ResetBits
    GPIO_ResetBits
        0x080005fc:    6141        Aa      STR      r1,[r0,#0x14]
        0x080005fe:    4770        pG      BX       lr
    i.GPIO_SetBits
    GPIO_SetBits
        0x08000600:    6101        .a      STR      r1,[r0,#0x10]
        0x08000602:    4770        pG      BX       lr
    i.IWDG_Config
    IWDG_Config
        0x08000604:    b570        p.      PUSH     {r4-r6,lr}
        0x08000606:    4605        .F      MOV      r5,r0
        0x08000608:    460c        .F      MOV      r4,r1
        0x0800060a:    f2455055    E.UP    MOV      r0,#0x5555
        0x0800060e:    f000f827    ..'.    BL       IWDG_WriteAccessCmd ; 0x8000660
        0x08000612:    4628        (F      MOV      r0,r5
        0x08000614:    f000f818    ....    BL       IWDG_SetPrescaler ; 0x8000648
        0x08000618:    4620         F      MOV      r0,r4
        0x0800061a:    f000f81b    ....    BL       IWDG_SetReload ; 0x8000654
        0x0800061e:    f000f80b    ....    BL       IWDG_ReloadCounter ; 0x8000638
        0x08000622:    f000f801    ....    BL       IWDG_Enable ; 0x8000628
        0x08000626:    bd70        p.      POP      {r4-r6,pc}
    i.IWDG_Enable
    IWDG_Enable
        0x08000628:    f64c40cc    L..@    MOV      r0,#0xcccc
        0x0800062c:    4901        .I      LDR      r1,[pc,#4] ; [0x8000634] = 0x40003000
        0x0800062e:    6008        .`      STR      r0,[r1,#0]
        0x08000630:    4770        pG      BX       lr
    $d
        0x08000632:    0000        ..      DCW    0
        0x08000634:    40003000    .0.@    DCD    1073754112
    $t
    i.IWDG_ReloadCounter
    IWDG_ReloadCounter
        0x08000638:    f64a20aa    J..     MOV      r0,#0xaaaa
        0x0800063c:    4901        .I      LDR      r1,[pc,#4] ; [0x8000644] = 0x40003000
        0x0800063e:    6008        .`      STR      r0,[r1,#0]
        0x08000640:    4770        pG      BX       lr
    $d
        0x08000642:    0000        ..      DCW    0
        0x08000644:    40003000    .0.@    DCD    1073754112
    $t
    i.IWDG_SetPrescaler
    IWDG_SetPrescaler
        0x08000648:    4901        .I      LDR      r1,[pc,#4] ; [0x8000650] = 0x40003000
        0x0800064a:    6048        H`      STR      r0,[r1,#4]
        0x0800064c:    4770        pG      BX       lr
    $d
        0x0800064e:    0000        ..      DCW    0
        0x08000650:    40003000    .0.@    DCD    1073754112
    $t
    i.IWDG_SetReload
    IWDG_SetReload
        0x08000654:    4901        .I      LDR      r1,[pc,#4] ; [0x800065c] = 0x40003000
        0x08000656:    6088        .`      STR      r0,[r1,#8]
        0x08000658:    4770        pG      BX       lr
    $d
        0x0800065a:    0000        ..      DCW    0
        0x0800065c:    40003000    .0.@    DCD    1073754112
    $t
    i.IWDG_WriteAccessCmd
    IWDG_WriteAccessCmd
        0x08000660:    4901        .I      LDR      r1,[pc,#4] ; [0x8000668] = 0x40003000
        0x08000662:    6008        .`      STR      r0,[r1,#0]
        0x08000664:    4770        pG      BX       lr
    $d
        0x08000666:    0000        ..      DCW    0
        0x08000668:    40003000    .0.@    DCD    1073754112
    $t
    i.RCC_APB2PeriphClockCmd
    RCC_APB2PeriphClockCmd
        0x0800066c:    b129        ).      CBZ      r1,0x800067a ; RCC_APB2PeriphClockCmd + 14
        0x0800066e:    4a06        .J      LDR      r2,[pc,#24] ; [0x8000688] = 0x40021000
        0x08000670:    6992        .i      LDR      r2,[r2,#0x18]
        0x08000672:    4302        .C      ORRS     r2,r2,r0
        0x08000674:    4b04        .K      LDR      r3,[pc,#16] ; [0x8000688] = 0x40021000
        0x08000676:    619a        .a      STR      r2,[r3,#0x18]
        0x08000678:    e004        ..      B        0x8000684 ; RCC_APB2PeriphClockCmd + 24
        0x0800067a:    4a03        .J      LDR      r2,[pc,#12] ; [0x8000688] = 0x40021000
        0x0800067c:    6992        .i      LDR      r2,[r2,#0x18]
        0x0800067e:    4382        .C      BICS     r2,r2,r0
        0x08000680:    4b01        .K      LDR      r3,[pc,#4] ; [0x8000688] = 0x40021000
        0x08000682:    619a        .a      STR      r2,[r3,#0x18]
        0x08000684:    4770        pG      BX       lr
    $d
        0x08000686:    0000        ..      DCW    0
        0x08000688:    40021000    ...@    DCD    1073876992
    $t
    i.SetSysClock
    SetSysClock
        0x0800068c:    b510        ..      PUSH     {r4,lr}
        0x0800068e:    f000f801    ....    BL       SetSysClockTo72 ; 0x8000694
        0x08000692:    bd10        ..      POP      {r4,pc}
    i.SetSysClockTo72
    SetSysClockTo72
        0x08000694:    b50c        ..      PUSH     {r2,r3,lr}
        0x08000696:    2000        .       MOVS     r0,#0
        0x08000698:    9001        ..      STR      r0,[sp,#4]
        0x0800069a:    9000        ..      STR      r0,[sp,#0]
        0x0800069c:    4833        3H      LDR      r0,[pc,#204] ; [0x800076c] = 0x40021000
        0x0800069e:    6800        .h      LDR      r0,[r0,#0]
        0x080006a0:    f4403080    @..0    ORR      r0,r0,#0x10000
        0x080006a4:    4931        1I      LDR      r1,[pc,#196] ; [0x800076c] = 0x40021000
        0x080006a6:    6008        .`      STR      r0,[r1,#0]
        0x080006a8:    bf00        ..      NOP      
        0x080006aa:    4830        0H      LDR      r0,[pc,#192] ; [0x800076c] = 0x40021000
        0x080006ac:    6800        .h      LDR      r0,[r0,#0]
        0x080006ae:    f4003000    ...0    AND      r0,r0,#0x20000
        0x080006b2:    9000        ..      STR      r0,[sp,#0]
        0x080006b4:    9801        ..      LDR      r0,[sp,#4]
        0x080006b6:    1c40        @.      ADDS     r0,r0,#1
        0x080006b8:    9001        ..      STR      r0,[sp,#4]
        0x080006ba:    9800        ..      LDR      r0,[sp,#0]
        0x080006bc:    b918        ..      CBNZ     r0,0x80006c6 ; SetSysClockTo72 + 50
        0x080006be:    9801        ..      LDR      r0,[sp,#4]
        0x080006c0:    f5b06fa0    ...o    CMP      r0,#0x500
        0x080006c4:    d1f1        ..      BNE      0x80006aa ; SetSysClockTo72 + 22
        0x080006c6:    4829        )H      LDR      r0,[pc,#164] ; [0x800076c] = 0x40021000
        0x080006c8:    6800        .h      LDR      r0,[r0,#0]
        0x080006ca:    f4003000    ...0    AND      r0,r0,#0x20000
        0x080006ce:    b110        ..      CBZ      r0,0x80006d6 ; SetSysClockTo72 + 66
        0x080006d0:    2001        .       MOVS     r0,#1
        0x080006d2:    9000        ..      STR      r0,[sp,#0]
        0x080006d4:    e001        ..      B        0x80006da ; SetSysClockTo72 + 70
        0x080006d6:    2000        .       MOVS     r0,#0
        0x080006d8:    9000        ..      STR      r0,[sp,#0]
        0x080006da:    9800        ..      LDR      r0,[sp,#0]
        0x080006dc:    2801        .(      CMP      r0,#1
        0x080006de:    d143        C.      BNE      0x8000768 ; SetSysClockTo72 + 212
        0x080006e0:    4823        #H      LDR      r0,[pc,#140] ; [0x8000770] = 0x40022000
        0x080006e2:    6800        .h      LDR      r0,[r0,#0]
        0x080006e4:    f0400010    @...    ORR      r0,r0,#0x10
        0x080006e8:    4921        !I      LDR      r1,[pc,#132] ; [0x8000770] = 0x40022000
        0x080006ea:    6008        .`      STR      r0,[r1,#0]
        0x080006ec:    4608        .F      MOV      r0,r1
        0x080006ee:    6800        .h      LDR      r0,[r0,#0]
        0x080006f0:    f0200003     ...    BIC      r0,r0,#3
        0x080006f4:    6008        .`      STR      r0,[r1,#0]
        0x080006f6:    4608        .F      MOV      r0,r1
        0x080006f8:    6800        .h      LDR      r0,[r0,#0]
        0x080006fa:    f0400002    @...    ORR      r0,r0,#2
        0x080006fe:    6008        .`      STR      r0,[r1,#0]
        0x08000700:    481a        .H      LDR      r0,[pc,#104] ; [0x800076c] = 0x40021000
        0x08000702:    6840        @h      LDR      r0,[r0,#4]
        0x08000704:    4919        .I      LDR      r1,[pc,#100] ; [0x800076c] = 0x40021000
        0x08000706:    6048        H`      STR      r0,[r1,#4]
        0x08000708:    4608        .F      MOV      r0,r1
        0x0800070a:    6840        @h      LDR      r0,[r0,#4]
        0x0800070c:    6048        H`      STR      r0,[r1,#4]
        0x0800070e:    4608        .F      MOV      r0,r1
        0x08000710:    6840        @h      LDR      r0,[r0,#4]
        0x08000712:    f4406080    @..`    ORR      r0,r0,#0x400
        0x08000716:    6048        H`      STR      r0,[r1,#4]
        0x08000718:    4608        .F      MOV      r0,r1
        0x0800071a:    6840        @h      LDR      r0,[r0,#4]
        0x0800071c:    f420107c     .|.    BIC      r0,r0,#0x3f0000
        0x08000720:    6048        H`      STR      r0,[r1,#4]
        0x08000722:    4608        .F      MOV      r0,r1
        0x08000724:    6840        @h      LDR      r0,[r0,#4]
        0x08000726:    f44010e8    @...    ORR      r0,r0,#0x1d0000
        0x0800072a:    6048        H`      STR      r0,[r1,#4]
        0x0800072c:    4608        .F      MOV      r0,r1
        0x0800072e:    6800        .h      LDR      r0,[r0,#0]
        0x08000730:    f0407080    @..p    ORR      r0,r0,#0x1000000
        0x08000734:    6008        .`      STR      r0,[r1,#0]
        0x08000736:    bf00        ..      NOP      
        0x08000738:    480c        .H      LDR      r0,[pc,#48] ; [0x800076c] = 0x40021000
        0x0800073a:    6800        .h      LDR      r0,[r0,#0]
        0x0800073c:    f0007000    ...p    AND      r0,r0,#0x2000000
        0x08000740:    2800        .(      CMP      r0,#0
        0x08000742:    d0f9        ..      BEQ      0x8000738 ; SetSysClockTo72 + 164
        0x08000744:    4809        .H      LDR      r0,[pc,#36] ; [0x800076c] = 0x40021000
        0x08000746:    6840        @h      LDR      r0,[r0,#4]
        0x08000748:    f0200003     ...    BIC      r0,r0,#3
        0x0800074c:    4907        .I      LDR      r1,[pc,#28] ; [0x800076c] = 0x40021000
        0x0800074e:    6048        H`      STR      r0,[r1,#4]
        0x08000750:    4608        .F      MOV      r0,r1
        0x08000752:    6840        @h      LDR      r0,[r0,#4]
        0x08000754:    f0400002    @...    ORR      r0,r0,#2
        0x08000758:    6048        H`      STR      r0,[r1,#4]
        0x0800075a:    bf00        ..      NOP      
        0x0800075c:    4803        .H      LDR      r0,[pc,#12] ; [0x800076c] = 0x40021000
        0x0800075e:    6840        @h      LDR      r0,[r0,#4]
        0x08000760:    f000000c    ....    AND      r0,r0,#0xc
        0x08000764:    2808        .(      CMP      r0,#8
        0x08000766:    d1f9        ..      BNE      0x800075c ; SetSysClockTo72 + 200
        0x08000768:    bd0c        ..      POP      {r2,r3,pc}
    $d
        0x0800076a:    0000        ..      DCW    0
        0x0800076c:    40021000    ...@    DCD    1073876992
        0x08000770:    40022000    . .@    DCD    1073881088
    $t
    i.SystemInit
    SystemInit
        0x08000774:    b510        ..      PUSH     {r4,lr}
        0x08000776:    4813        .H      LDR      r0,[pc,#76] ; [0x80007c4] = 0x40021000
        0x08000778:    6800        .h      LDR      r0,[r0,#0]
        0x0800077a:    f0400001    @...    ORR      r0,r0,#1
        0x0800077e:    4911        .I      LDR      r1,[pc,#68] ; [0x80007c4] = 0x40021000
        0x08000780:    6008        .`      STR      r0,[r1,#0]
        0x08000782:    4608        .F      MOV      r0,r1
        0x08000784:    6840        @h      LDR      r0,[r0,#4]
        0x08000786:    4910        .I      LDR      r1,[pc,#64] ; [0x80007c8] = 0xf8ff0000
        0x08000788:    4008        .@      ANDS     r0,r0,r1
        0x0800078a:    490e        .I      LDR      r1,[pc,#56] ; [0x80007c4] = 0x40021000
        0x0800078c:    6048        H`      STR      r0,[r1,#4]
        0x0800078e:    4608        .F      MOV      r0,r1
        0x08000790:    6800        .h      LDR      r0,[r0,#0]
        0x08000792:    490e        .I      LDR      r1,[pc,#56] ; [0x80007cc] = 0xfef6ffff
        0x08000794:    4008        .@      ANDS     r0,r0,r1
        0x08000796:    490b        .I      LDR      r1,[pc,#44] ; [0x80007c4] = 0x40021000
        0x08000798:    6008        .`      STR      r0,[r1,#0]
        0x0800079a:    4608        .F      MOV      r0,r1
        0x0800079c:    6800        .h      LDR      r0,[r0,#0]
        0x0800079e:    f4202080     ..     BIC      r0,r0,#0x40000
        0x080007a2:    6008        .`      STR      r0,[r1,#0]
        0x080007a4:    4608        .F      MOV      r0,r1
        0x080007a6:    6840        @h      LDR      r0,[r0,#4]
        0x080007a8:    f42000fe     ...    BIC      r0,r0,#0x7f0000
        0x080007ac:    6048        H`      STR      r0,[r1,#4]
        0x080007ae:    f44f001f    O...    MOV      r0,#0x9f0000
        0x080007b2:    6088        .`      STR      r0,[r1,#8]
        0x080007b4:    f7ffff6a    ..j.    BL       SetSysClock ; 0x800068c
        0x080007b8:    f04f6000    O..`    MOV      r0,#0x8000000
        0x080007bc:    4904        .I      LDR      r1,[pc,#16] ; [0x80007d0] = 0xe000ed08
        0x080007be:    6008        .`      STR      r0,[r1,#0]
        0x080007c0:    bd10        ..      POP      {r4,pc}
    $d
        0x080007c2:    0000        ..      DCW    0
        0x080007c4:    40021000    ...@    DCD    1073876992
        0x080007c8:    f8ff0000    ....    DCD    4177461248
        0x080007cc:    fef6ffff    ....    DCD    4277600255
        0x080007d0:    e000ed08    ....    DCD    3758157064
    $t
    i.TIM1_UP_IRQHandler
    TIM1_UP_IRQHandler
        0x080007d4:    b510        ..      PUSH     {r4,lr}
        0x080007d6:    2101        .!      MOVS     r1,#1
        0x080007d8:    4808        .H      LDR      r0,[pc,#32] ; [0x80007fc] = 0x40012c00
        0x080007da:    f000f816    ....    BL       TIM_GetITStatus ; 0x800080a
        0x080007de:    b160        `.      CBZ      r0,0x80007fa ; TIM1_UP_IRQHandler + 38
        0x080007e0:    4807        .H      LDR      r0,[pc,#28] ; [0x8000800] = 0x20000078
        0x080007e2:    6802        .h      LDR      r2,[r0,#0]
        0x080007e4:    6840        @h      LDR      r0,[r0,#4]
        0x080007e6:    1c52        R.      ADDS     r2,r2,#1
        0x080007e8:    f1400000    @...    ADC      r0,r0,#0
        0x080007ec:    4904        .I      LDR      r1,[pc,#16] ; [0x8000800] = 0x20000078
        0x080007ee:    600a        .`      STR      r2,[r1,#0]
        0x080007f0:    6048        H`      STR      r0,[r1,#4]
        0x080007f2:    2101        .!      MOVS     r1,#1
        0x080007f4:    4801        .H      LDR      r0,[pc,#4] ; [0x80007fc] = 0x40012c00
        0x080007f6:    f000f805    ....    BL       TIM_ClearITPendingBit ; 0x8000804
        0x080007fa:    bd10        ..      POP      {r4,pc}
    $d
        0x080007fc:    40012c00    .,.@    DCD    1073818624
        0x08000800:    20000078    x..     DCD    536871032
    $t
    i.TIM_ClearITPendingBit
    TIM_ClearITPendingBit
        0x08000804:    43ca        .C      MVNS     r2,r1
        0x08000806:    8202        ..      STRH     r2,[r0,#0x10]
        0x08000808:    4770        pG      BX       lr
    i.TIM_GetITStatus
    TIM_GetITStatus
        0x0800080a:    b530        0.      PUSH     {r4,r5,lr}
        0x0800080c:    4602        .F      MOV      r2,r0
        0x0800080e:    2000        .       MOVS     r0,#0
        0x08000810:    2300        .#      MOVS     r3,#0
        0x08000812:    2400        .$      MOVS     r4,#0
        0x08000814:    8a15        ..      LDRH     r5,[r2,#0x10]
        0x08000816:    ea050301    ....    AND      r3,r5,r1
        0x0800081a:    8995        ..      LDRH     r5,[r2,#0xc]
        0x0800081c:    ea050401    ....    AND      r4,r5,r1
        0x08000820:    b113        ..      CBZ      r3,0x8000828 ; TIM_GetITStatus + 30
        0x08000822:    b10c        ..      CBZ      r4,0x8000828 ; TIM_GetITStatus + 30
        0x08000824:    2001        .       MOVS     r0,#1
        0x08000826:    e000        ..      B        0x800082a ; TIM_GetITStatus + 32
        0x08000828:    2000        .       MOVS     r0,#0
        0x0800082a:    bd30        0.      POP      {r4,r5,pc}
    i.USART1_IRQHandler
    USART1_IRQHandler
        0x0800082c:    b570        p.      PUSH     {r4-r6,lr}
        0x0800082e:    4842        BH      LDR      r0,[pc,#264] ; [0x8000938] = 0x40013800
        0x08000830:    f000f8c3    ....    BL       USART_ReceiveData ; 0x80009ba
        0x08000834:    b2c4        ..      UXTB     r4,r0
        0x08000836:    2000        .       MOVS     r0,#0
        0x08000838:    4940        @I      LDR      r1,[pc,#256] ; [0x800093c] = 0x2000000c
        0x0800083a:    7008        .p      STRB     r0,[r1,#0]
        0x0800083c:    e00c        ..      B        0x8000858 ; USART1_IRQHandler + 44
        0x0800083e:    4940        @I      LDR      r1,[pc,#256] ; [0x8000940] = 0x2000000d
        0x08000840:    483e        >H      LDR      r0,[pc,#248] ; [0x800093c] = 0x2000000c
        0x08000842:    7800        .x      LDRB     r0,[r0,#0]
        0x08000844:    1c40        @.      ADDS     r0,r0,#1
        0x08000846:    5c08        .\      LDRB     r0,[r1,r0]
        0x08000848:    4a3c        <J      LDR      r2,[pc,#240] ; [0x800093c] = 0x2000000c
        0x0800084a:    7812        .x      LDRB     r2,[r2,#0]
        0x0800084c:    5488        .T      STRB     r0,[r1,r2]
        0x0800084e:    483b        ;H      LDR      r0,[pc,#236] ; [0x800093c] = 0x2000000c
        0x08000850:    7800        .x      LDRB     r0,[r0,#0]
        0x08000852:    1c40        @.      ADDS     r0,r0,#1
        0x08000854:    4939        9I      LDR      r1,[pc,#228] ; [0x800093c] = 0x2000000c
        0x08000856:    7008        .p      STRB     r0,[r1,#0]
        0x08000858:    4838        8H      LDR      r0,[pc,#224] ; [0x800093c] = 0x2000000c
        0x0800085a:    7800        .x      LDRB     r0,[r0,#0]
        0x0800085c:    2804        .(      CMP      r0,#4
        0x0800085e:    dbee        ..      BLT      0x800083e ; USART1_IRQHandler + 18
        0x08000860:    4937        7I      LDR      r1,[pc,#220] ; [0x8000940] = 0x2000000d
        0x08000862:    710c        .q      STRB     r4,[r1,#4]
        0x08000864:    4608        .F      MOV      r0,r1
        0x08000866:    7800        .x      LDRB     r0,[r0,#0]
        0x08000868:    2872        r(      CMP      r0,#0x72
        0x0800086a:    d114        ..      BNE      0x8000896 ; USART1_IRQHandler + 106
        0x0800086c:    4608        .F      MOV      r0,r1
        0x0800086e:    7840        @x      LDRB     r0,[r0,#1]
        0x08000870:    2865        e(      CMP      r0,#0x65
        0x08000872:    d110        ..      BNE      0x8000896 ; USART1_IRQHandler + 106
        0x08000874:    4608        .F      MOV      r0,r1
        0x08000876:    7880        .x      LDRB     r0,[r0,#2]
        0x08000878:    2873        s(      CMP      r0,#0x73
        0x0800087a:    d10c        ..      BNE      0x8000896 ; USART1_IRQHandler + 106
        0x0800087c:    4608        .F      MOV      r0,r1
        0x0800087e:    78c0        .x      LDRB     r0,[r0,#3]
        0x08000880:    2865        e(      CMP      r0,#0x65
        0x08000882:    d108        ..      BNE      0x8000896 ; USART1_IRQHandler + 106
        0x08000884:    4608        .F      MOV      r0,r1
        0x08000886:    7900        .y      LDRB     r0,[r0,#4]
        0x08000888:    2874        t(      CMP      r0,#0x74
        0x0800088a:    d104        ..      BNE      0x8000896 ; USART1_IRQHandler + 106
        0x0800088c:    a02d        -.      ADR      r0,{pc}+0xb8 ; 0x8000944
        0x0800088e:    f002f927    ..'.    BL       uart_puts ; 0x8002ae0
        0x08000892:    f002f92f    ../.    BL       watchdog_reset ; 0x8002af4
        0x08000896:    2c0a        .,      CMP      r4,#0xa
        0x08000898:    d100        ..      BNE      0x800089c ; USART1_IRQHandler + 112
        0x0800089a:    bd70        p.      POP      {r4-r6,pc}
        0x0800089c:    482e        .H      LDR      r0,[pc,#184] ; [0x8000958] = 0x20000008
        0x0800089e:    6800        .h      LDR      r0,[r0,#0]
        0x080008a0:    28ff        .(      CMP      r0,#0xff
        0x080008a2:    d108        ..      BNE      0x80008b6 ; USART1_IRQHandler + 138
        0x080008a4:    2c0d        .,      CMP      r4,#0xd
        0x080008a6:    d006        ..      BEQ      0x80008b6 ; USART1_IRQHandler + 138
        0x080008a8:    a02c        ,.      ADR      r0,{pc}+0xb4 ; 0x800095c
        0x080008aa:    f002f919    ....    BL       uart_puts ; 0x8002ae0
        0x080008ae:    2000        .       MOVS     r0,#0
        0x080008b0:    4929        )I      LDR      r1,[pc,#164] ; [0x8000958] = 0x20000008
        0x080008b2:    6008        .`      STR      r0,[r1,#0]
        0x080008b4:    e7f1        ..      B        0x800089a ; USART1_IRQHandler + 110
        0x080008b6:    2c0d        .,      CMP      r4,#0xd
        0x080008b8:    d12f        /.      BNE      0x800091a ; USART1_IRQHandler + 238
        0x080008ba:    2000        .       MOVS     r0,#0
        0x080008bc:    492b        +I      LDR      r1,[pc,#172] ; [0x800096c] = 0x200000dc
        0x080008be:    4a26        &J      LDR      r2,[pc,#152] ; [0x8000958] = 0x20000008
        0x080008c0:    6812        .h      LDR      r2,[r2,#0]
        0x080008c2:    5488        .T      STRB     r0,[r1,r2]
        0x080008c4:    482a        *H      LDR      r0,[pc,#168] ; [0x8000970] = 0x20000004
        0x080008c6:    6800        .h      LDR      r0,[r0,#0]
        0x080008c8:    b128        (.      CBZ      r0,0x80008d6 ; USART1_IRQHandler + 170
        0x080008ca:    2801        .(      CMP      r0,#1
        0x080008cc:    d11f        ..      BNE      0x800090e ; USART1_IRQHandler + 226
        0x080008ce:    4608        .F      MOV      r0,r1
        0x080008d0:    f001fde4    ....    BL       shell ; 0x800249c
        0x080008d4:    e01c        ..      B        0x8000910 ; USART1_IRQHandler + 228
        0x080008d6:    2100        .!      MOVS     r1,#0
        0x080008d8:    4826        &H      LDR      r0,[pc,#152] ; [0x8000974] = 0x2000001c
        0x080008da:    6800        .h      LDR      r0,[r0,#0]
        0x080008dc:    f000fe80    ....    BL       osMailAlloc ; 0x80015e0
        0x080008e0:    4605        .F      MOV      r5,r0
        0x080008e2:    b185        ..      CBZ      r5,0x8000906 ; USART1_IRQHandler + 218
        0x080008e4:    481c        .H      LDR      r0,[pc,#112] ; [0x8000958] = 0x20000008
        0x080008e6:    6802        .h      LDR      r2,[r0,#0]
        0x080008e8:    1c52        R.      ADDS     r2,r2,#1
        0x080008ea:    4920         I      LDR      r1,[pc,#128] ; [0x800096c] = 0x200000dc
        0x080008ec:    4628        (F      MOV      r0,r5
        0x080008ee:    f7fffcea    ....    BL       __aeabi_memcpy ; 0x80002c6
        0x080008f2:    4629        )F      MOV      r1,r5
        0x080008f4:    481f        .H      LDR      r0,[pc,#124] ; [0x8000974] = 0x2000001c
        0x080008f6:    6800        .h      LDR      r0,[r0,#0]
        0x080008f8:    f000fe82    ....    BL       osMailPut ; 0x8001600
        0x080008fc:    b130        0.      CBZ      r0,0x800090c ; USART1_IRQHandler + 224
        0x080008fe:    a01e        ..      ADR      r0,{pc}+0x7a ; 0x8000978
        0x08000900:    f002f8ee    ....    BL       uart_puts ; 0x8002ae0
        0x08000904:    e002        ..      B        0x800090c ; USART1_IRQHandler + 224
        0x08000906:    a021        !.      ADR      r0,{pc}+0x86 ; 0x800098c
        0x08000908:    f002f8ea    ....    BL       uart_puts ; 0x8002ae0
        0x0800090c:    e000        ..      B        0x8000910 ; USART1_IRQHandler + 228
        0x0800090e:    bf00        ..      NOP      
        0x08000910:    bf00        ..      NOP      
        0x08000912:    2000        .       MOVS     r0,#0
        0x08000914:    4910        .I      LDR      r1,[pc,#64] ; [0x8000958] = 0x20000008
        0x08000916:    6008        .`      STR      r0,[r1,#0]
        0x08000918:    e7bf        ..      B        0x800089a ; USART1_IRQHandler + 110
        0x0800091a:    4914        .I      LDR      r1,[pc,#80] ; [0x800096c] = 0x200000dc
        0x0800091c:    4a0e        .J      LDR      r2,[pc,#56] ; [0x8000958] = 0x20000008
        0x0800091e:    6812        .h      LDR      r2,[r2,#0]
        0x08000920:    548c        .T      STRB     r4,[r1,r2]
        0x08000922:    480d        .H      LDR      r0,[pc,#52] ; [0x8000958] = 0x20000008
        0x08000924:    6800        .h      LDR      r0,[r0,#0]
        0x08000926:    1c40        @.      ADDS     r0,r0,#1
        0x08000928:    490b        .I      LDR      r1,[pc,#44] ; [0x8000958] = 0x20000008
        0x0800092a:    6008        .`      STR      r0,[r1,#0]
        0x0800092c:    b2e0        ..      UXTB     r0,r4
        0x0800092e:    f002f8cd    ....    BL       uart_putc ; 0x8002acc
        0x08000932:    bf00        ..      NOP      
        0x08000934:    e7b1        ..      B        0x800089a ; USART1_IRQHandler + 110
    $d
        0x08000936:    0000        ..      DCW    0
        0x08000938:    40013800    .8.@    DCD    1073821696
        0x0800093c:    2000000c    ...     DCD    536870924
        0x08000940:    2000000d    ...     DCD    536870925
        0x08000944:    6967616d    magi    DCD    1768382829
        0x08000948:    6d632063    c cm    DCD    1835212899
        0x0800094c:    725b2064    d [r    DCD    1918574692
        0x08000950:    74657365    eset    DCD    1952805733
        0x08000954:    000a215d    ]!..    DCD    663901
        0x08000958:    20000008    ...     DCD    536870920
        0x0800095c:    20646d63    cmd     DCD    543452515
        0x08000960:    206f6f74    too     DCD    544173940
        0x08000964:    676e6f6c    long    DCD    1735290732
        0x08000968:    00000a21    !...    DCD    2593
        0x0800096c:    200000dc    ...     DCD    536871132
        0x08000970:    20000004    ...     DCD    536870916
        0x08000974:    2000001c    ...     DCD    536870940
        0x08000978:    614d736f    osMa    DCD    1632465775
        0x0800097c:    75506c69    ilPu    DCD    1968204905
        0x08000980:    61662074    t fa    DCD    1634082932
        0x08000984:    0a216c69    il!.    DCD    169962601
        0x08000988:    00000000    ....    DCD    0
        0x0800098c:    614d736f    osMa    DCD    1632465775
        0x08000990:    6c416c69    ilAl    DCD    1816226921
        0x08000994:    20636f6c    loc     DCD    543387500
        0x08000998:    6c696166    fail    DCD    1818845542
        0x0800099c:    00000a21    !...    DCD    2593
    $t
    i.USART_GetFlagStatus
    USART_GetFlagStatus
        0x080009a0:    4602        .F      MOV      r2,r0
        0x080009a2:    2000        .       MOVS     r0,#0
        0x080009a4:    f5b17f00    ....    CMP      r1,#0x200
        0x080009a8:    d100        ..      BNE      0x80009ac ; USART_GetFlagStatus + 12
        0x080009aa:    bf00        ..      NOP      
        0x080009ac:    8813        ..      LDRH     r3,[r2,#0]
        0x080009ae:    400b        .@      ANDS     r3,r3,r1
        0x080009b0:    b10b        ..      CBZ      r3,0x80009b6 ; USART_GetFlagStatus + 22
        0x080009b2:    2001        .       MOVS     r0,#1
        0x080009b4:    e000        ..      B        0x80009b8 ; USART_GetFlagStatus + 24
        0x080009b6:    2000        .       MOVS     r0,#0
        0x080009b8:    4770        pG      BX       lr
    i.USART_ReceiveData
    USART_ReceiveData
        0x080009ba:    4601        .F      MOV      r1,r0
        0x080009bc:    8888        ..      LDRH     r0,[r1,#4]
        0x080009be:    f3c00008    ....    UBFX     r0,r0,#0,#9
        0x080009c2:    4770        pG      BX       lr
    i.USART_SendData
    USART_SendData
        0x080009c4:    f3c10208    ....    UBFX     r2,r1,#0,#9
        0x080009c8:    8082        ..      STRH     r2,[r0,#4]
        0x080009ca:    4770        pG      BX       lr
    i.Usart_SendByte
    Usart_SendByte
        0x080009cc:    b570        p.      PUSH     {r4-r6,lr}
        0x080009ce:    4604        .F      MOV      r4,r0
        0x080009d0:    460d        .F      MOV      r5,r1
        0x080009d2:    4629        )F      MOV      r1,r5
        0x080009d4:    4620         F      MOV      r0,r4
        0x080009d6:    f7fffff5    ....    BL       USART_SendData ; 0x80009c4
        0x080009da:    bf00        ..      NOP      
        0x080009dc:    2180        .!      MOVS     r1,#0x80
        0x080009de:    4620         F      MOV      r0,r4
        0x080009e0:    f7ffffde    ....    BL       USART_GetFlagStatus ; 0x80009a0
        0x080009e4:    2800        .(      CMP      r0,#0
        0x080009e6:    d0f9        ..      BEQ      0x80009dc ; Usart_SendByte + 16
        0x080009e8:    bd70        p.      POP      {r4-r6,pc}
    i.Usart_SendString
    Usart_SendString
        0x080009ea:    b570        p.      PUSH     {r4-r6,lr}
        0x080009ec:    4606        .F      MOV      r6,r0
        0x080009ee:    460c        .F      MOV      r4,r1
        0x080009f0:    2500        .%      MOVS     r5,#0
        0x080009f2:    bf00        ..      NOP      
        0x080009f4:    5d61        a]      LDRB     r1,[r4,r5]
        0x080009f6:    4630        0F      MOV      r0,r6
        0x080009f8:    f7ffffe8    ....    BL       Usart_SendByte ; 0x80009cc
        0x080009fc:    1c6d        m.      ADDS     r5,r5,#1
        0x080009fe:    5d60        `]      LDRB     r0,[r4,r5]
        0x08000a00:    2800        .(      CMP      r0,#0
        0x08000a02:    d1f7        ..      BNE      0x80009f4 ; Usart_SendString + 10
        0x08000a04:    bf00        ..      NOP      
        0x08000a06:    2140        @!      MOVS     r1,#0x40
        0x08000a08:    4630        0F      MOV      r0,r6
        0x08000a0a:    f7ffffc9    ....    BL       USART_GetFlagStatus ; 0x80009a0
        0x08000a0e:    2800        .(      CMP      r0,#0
        0x08000a10:    d0f9        ..      BEQ      0x8000a06 ; Usart_SendString + 28
        0x08000a12:    bd70        p.      POP      {r4-r6,pc}
    i.__0printf$8
    __0printf$8
    __1printf$8
    __2printf
        0x08000a14:    b40f        ..      PUSH     {r0-r3}
        0x08000a16:    4b05        .K      LDR      r3,[pc,#20] ; [0x8000a2c] = 0x80011cd
        0x08000a18:    b510        ..      PUSH     {r4,lr}
        0x08000a1a:    a903        ..      ADD      r1,sp,#0xc
        0x08000a1c:    4a04        .J      LDR      r2,[pc,#16] ; [0x8000a30] = 0x200000d4
        0x08000a1e:    9802        ..      LDR      r0,[sp,#8]
        0x08000a20:    f000f83e    ..>.    BL       _printf_core ; 0x8000aa0
        0x08000a24:    bc10        ..      POP      {r4}
        0x08000a26:    f85dfb14    ]...    LDR      pc,[sp],#0x14
    $d
        0x08000a2a:    0000        ..      DCW    0
        0x08000a2c:    080011cd    ....    DCD    134222285
        0x08000a30:    200000d4    ...     DCD    536871124
    $t
    i.__aeabi_errno_addr
    __aeabi_errno_addr
    __rt_errno_addr
        0x08000a34:    4800        .H      LDR      r0,[pc,#0] ; [0x8000a38] = 0x200000d8
        0x08000a36:    4770        pG      BX       lr
    $d
        0x08000a38:    200000d8    ...     DCD    536871128
    $t
    i.__scatterload_copy
    __scatterload_copy
        0x08000a3c:    e002        ..      B        0x8000a44 ; __scatterload_copy + 8
        0x08000a3e:    c808        ..      LDM      r0!,{r3}
        0x08000a40:    1f12        ..      SUBS     r2,r2,#4
        0x08000a42:    c108        ..      STM      r1!,{r3}
        0x08000a44:    2a00        .*      CMP      r2,#0
        0x08000a46:    d1fa        ..      BNE      0x8000a3e ; __scatterload_copy + 2
        0x08000a48:    4770        pG      BX       lr
    i.__scatterload_null
    __scatterload_null
        0x08000a4a:    4770        pG      BX       lr
    i.__scatterload_zeroinit
    __scatterload_zeroinit
        0x08000a4c:    2000        .       MOVS     r0,#0
        0x08000a4e:    e001        ..      B        0x8000a54 ; __scatterload_zeroinit + 8
        0x08000a50:    c101        ..      STM      r1!,{r0}
        0x08000a52:    1f12        ..      SUBS     r2,r2,#4
        0x08000a54:    2a00        .*      CMP      r2,#0
        0x08000a56:    d1fb        ..      BNE      0x8000a50 ; __scatterload_zeroinit + 4
        0x08000a58:    4770        pG      BX       lr
    i._init_box
    _init_box
        0x08000a5a:    b510        ..      PUSH     {r4,lr}
        0x08000a5c:    2a00        .*      CMP      r2,#0
        0x08000a5e:    da06        ..      BGE      0x8000a6e ; _init_box + 20
        0x08000a60:    f0224200    "..B    BIC      r2,r2,#0x80000000
        0x08000a64:    1dd2        ..      ADDS     r2,r2,#7
        0x08000a66:    f0220307    "...    BIC      r3,r2,#7
        0x08000a6a:    2210        ."      MOVS     r2,#0x10
        0x08000a6c:    e003        ..      B        0x8000a76 ; _init_box + 28
        0x08000a6e:    1cd2        ..      ADDS     r2,r2,#3
        0x08000a70:    f0220303    "...    BIC      r3,r2,#3
        0x08000a74:    220c        ."      MOVS     r2,#0xc
        0x08000a76:    b113        ..      CBZ      r3,0x8000a7e ; _init_box + 36
        0x08000a78:    189c        ..      ADDS     r4,r3,r2
        0x08000a7a:    428c        .B      CMP      r4,r1
        0x08000a7c:    d901        ..      BLS      0x8000a82 ; _init_box + 40
        0x08000a7e:    2001        .       MOVS     r0,#1
        0x08000a80:    bd10        ..      POP      {r4,pc}
        0x08000a82:    4402        .D      ADD      r2,r2,r0
        0x08000a84:    4401        .D      ADD      r1,r1,r0
        0x08000a86:    6083        .`      STR      r3,[r0,#8]
        0x08000a88:    e9c02100    ...!    STRD     r2,r1,[r0,#0]
        0x08000a8c:    1ac9        ..      SUBS     r1,r1,r3
        0x08000a8e:    18d0        ..      ADDS     r0,r2,r3
        0x08000a90:    4288        .B      CMP      r0,r1
        0x08000a92:    d802        ..      BHI      0x8000a9a ; _init_box + 64
        0x08000a94:    6010        .`      STR      r0,[r2,#0]
        0x08000a96:    4602        .F      MOV      r2,r0
        0x08000a98:    e7f9        ..      B        0x8000a8e ; _init_box + 52
        0x08000a9a:    2000        .       MOVS     r0,#0
        0x08000a9c:    6010        .`      STR      r0,[r2,#0]
        0x08000a9e:    bd10        ..      POP      {r4,pc}
    i._printf_core
    _printf_core
        0x08000aa0:    e92d4fff    -..O    PUSH     {r0-r11,lr}
        0x08000aa4:    b08d        ..      SUB      sp,sp,#0x34
        0x08000aa6:    460f        .F      MOV      r7,r1
        0x08000aa8:    4605        .F      MOV      r5,r0
        0x08000aaa:    2600        .&      MOVS     r6,#0
        0x08000aac:    e006        ..      B        0x8000abc ; _printf_core + 28
        0x08000aae:    2825        %(      CMP      r0,#0x25
        0x08000ab0:    d00b        ..      BEQ      0x8000aca ; _printf_core + 42
        0x08000ab2:    e9dd120f    ....    LDRD     r1,r2,[sp,#0x3c]
        0x08000ab6:    4790        .G      BLX      r2
        0x08000ab8:    1c6d        m.      ADDS     r5,r5,#1
        0x08000aba:    1c76        v.      ADDS     r6,r6,#1
        0x08000abc:    7828        (x      LDRB     r0,[r5,#0]
        0x08000abe:    2800        .(      CMP      r0,#0
        0x08000ac0:    d1f5        ..      BNE      0x8000aae ; _printf_core + 14
        0x08000ac2:    b011        ..      ADD      sp,sp,#0x44
        0x08000ac4:    4630        0F      MOV      r0,r6
        0x08000ac6:    e8bd8ff0    ....    POP      {r4-r11,pc}
        0x08000aca:    2400        .$      MOVS     r4,#0
        0x08000acc:    46a2        .F      MOV      r10,r4
        0x08000ace:    46a1        .F      MOV      r9,r4
        0x08000ad0:    2201        ."      MOVS     r2,#1
        0x08000ad2:    49ec        .I      LDR      r1,[pc,#944] ; [0x8000e84] = 0x12809
        0x08000ad4:    e000        ..      B        0x8000ad8 ; _printf_core + 56
        0x08000ad6:    4304        .C      ORRS     r4,r4,r0
        0x08000ad8:    f8153f01    ...?    LDRB     r3,[r5,#1]!
        0x08000adc:    3b20         ;      SUBS     r3,r3,#0x20
        0x08000ade:    fa02f003    ....    LSL      r0,r2,r3
        0x08000ae2:    4208        .B      TST      r0,r1
        0x08000ae4:    d1f7        ..      BNE      0x8000ad6 ; _printf_core + 54
        0x08000ae6:    7828        (x      LDRB     r0,[r5,#0]
        0x08000ae8:    282a        *(      CMP      r0,#0x2a
        0x08000aea:    d010        ..      BEQ      0x8000b0e ; _printf_core + 110
        0x08000aec:    f06f022f    o./.    MVN      r2,#0x2f
        0x08000af0:    7828        (x      LDRB     r0,[r5,#0]
        0x08000af2:    f1a00130    ..0.    SUB      r1,r0,#0x30
        0x08000af6:    2909        .)      CMP      r1,#9
        0x08000af8:    d814        ..      BHI      0x8000b24 ; _printf_core + 132
        0x08000afa:    eb0a018a    ....    ADD      r1,r10,r10,LSL #2
        0x08000afe:    eb020141    ..A.    ADD      r1,r2,r1,LSL #1
        0x08000b02:    f0440402    D...    ORR      r4,r4,#2
        0x08000b06:    eb000a01    ....    ADD      r10,r0,r1
        0x08000b0a:    1c6d        m.      ADDS     r5,r5,#1
        0x08000b0c:    e7f0        ..      B        0x8000af0 ; _printf_core + 80
        0x08000b0e:    cf01        ..      LDM      r7!,{r0}
        0x08000b10:    ea5f0a00    _...    MOVS     r10,r0
        0x08000b14:    d503        ..      BPL      0x8000b1e ; _printf_core + 126
        0x08000b16:    f4445400    D..T    ORR      r4,r4,#0x2000
        0x08000b1a:    f1ca0a00    ....    RSB      r10,r10,#0
        0x08000b1e:    f0440402    D...    ORR      r4,r4,#2
        0x08000b22:    1c6d        m.      ADDS     r5,r5,#1
        0x08000b24:    7828        (x      LDRB     r0,[r5,#0]
        0x08000b26:    282e        .(      CMP      r0,#0x2e
        0x08000b28:    d117        ..      BNE      0x8000b5a ; _printf_core + 186
        0x08000b2a:    f8150f01    ....    LDRB     r0,[r5,#1]!
        0x08000b2e:    f0440404    D...    ORR      r4,r4,#4
        0x08000b32:    282a        *(      CMP      r0,#0x2a
        0x08000b34:    d00e        ..      BEQ      0x8000b54 ; _printf_core + 180
        0x08000b36:    f06f022f    o./.    MVN      r2,#0x2f
        0x08000b3a:    7828        (x      LDRB     r0,[r5,#0]
        0x08000b3c:    f1a00130    ..0.    SUB      r1,r0,#0x30
        0x08000b40:    2909        .)      CMP      r1,#9
        0x08000b42:    d80a        ..      BHI      0x8000b5a ; _printf_core + 186
        0x08000b44:    eb090189    ....    ADD      r1,r9,r9,LSL #2
        0x08000b48:    eb020141    ..A.    ADD      r1,r2,r1,LSL #1
        0x08000b4c:    eb000901    ....    ADD      r9,r0,r1
        0x08000b50:    1c6d        m.      ADDS     r5,r5,#1
        0x08000b52:    e7f2        ..      B        0x8000b3a ; _printf_core + 154
        0x08000b54:    f8579b04    W...    LDR      r9,[r7],#4
        0x08000b58:    1c6d        m.      ADDS     r5,r5,#1
        0x08000b5a:    7828        (x      LDRB     r0,[r5,#0]
        0x08000b5c:    286c        l(      CMP      r0,#0x6c
        0x08000b5e:    d00f        ..      BEQ      0x8000b80 ; _printf_core + 224
        0x08000b60:    dc06        ..      BGT      0x8000b70 ; _printf_core + 208
        0x08000b62:    284c        L(      CMP      r0,#0x4c
        0x08000b64:    d017        ..      BEQ      0x8000b96 ; _printf_core + 246
        0x08000b66:    2868        h(      CMP      r0,#0x68
        0x08000b68:    d00d        ..      BEQ      0x8000b86 ; _printf_core + 230
        0x08000b6a:    286a        j(      CMP      r0,#0x6a
        0x08000b6c:    d114        ..      BNE      0x8000b98 ; _printf_core + 248
        0x08000b6e:    e004        ..      B        0x8000b7a ; _printf_core + 218
        0x08000b70:    2874        t(      CMP      r0,#0x74
        0x08000b72:    d010        ..      BEQ      0x8000b96 ; _printf_core + 246
        0x08000b74:    287a        z(      CMP      r0,#0x7a
        0x08000b76:    d10f        ..      BNE      0x8000b98 ; _printf_core + 248
        0x08000b78:    e00d        ..      B        0x8000b96 ; _printf_core + 246
        0x08000b7a:    f4441400    D...    ORR      r4,r4,#0x200000
        0x08000b7e:    e00a        ..      B        0x8000b96 ; _printf_core + 246
        0x08000b80:    f4441480    D...    ORR      r4,r4,#0x100000
        0x08000b84:    e001        ..      B        0x8000b8a ; _printf_core + 234
        0x08000b86:    f4441440    D.@.    ORR      r4,r4,#0x300000
        0x08000b8a:    7869        ix      LDRB     r1,[r5,#1]
        0x08000b8c:    4281        .B      CMP      r1,r0
        0x08000b8e:    d102        ..      BNE      0x8000b96 ; _printf_core + 246
        0x08000b90:    f5041480    ....    ADD      r4,r4,#0x100000
        0x08000b94:    1c6d        m.      ADDS     r5,r5,#1
        0x08000b96:    1c6d        m.      ADDS     r5,r5,#1
        0x08000b98:    782a        *x      LDRB     r2,[r5,#0]
        0x08000b9a:    2a6e        n*      CMP      r2,#0x6e
        0x08000b9c:    d01f        ..      BEQ      0x8000bde ; _printf_core + 318
        0x08000b9e:    dc0c        ..      BGT      0x8000bba ; _printf_core + 282
        0x08000ba0:    2a63        c*      CMP      r2,#0x63
        0x08000ba2:    d031        1.      BEQ      0x8000c08 ; _printf_core + 360
        0x08000ba4:    dc04        ..      BGT      0x8000bb0 ; _printf_core + 272
        0x08000ba6:    2a00        .*      CMP      r2,#0
        0x08000ba8:    d08b        ..      BEQ      0x8000ac2 ; _printf_core + 34
        0x08000baa:    2a58        X*      CMP      r2,#0x58
        0x08000bac:    d111        ..      BNE      0x8000bd2 ; _printf_core + 306
        0x08000bae:    e0a3        ..      B        0x8000cf8 ; _printf_core + 600
        0x08000bb0:    2a64        d*      CMP      r2,#0x64
        0x08000bb2:    d068        h.      BEQ      0x8000c86 ; _printf_core + 486
        0x08000bb4:    2a69        i*      CMP      r2,#0x69
        0x08000bb6:    d10c        ..      BNE      0x8000bd2 ; _printf_core + 306
        0x08000bb8:    e065        e.      B        0x8000c86 ; _printf_core + 486
        0x08000bba:    2a73        s*      CMP      r2,#0x73
        0x08000bbc:    d02e        ..      BEQ      0x8000c1c ; _printf_core + 380
        0x08000bbe:    dc04        ..      BGT      0x8000bca ; _printf_core + 298
        0x08000bc0:    2a6f        o*      CMP      r2,#0x6f
        0x08000bc2:    d073        s.      BEQ      0x8000cac ; _printf_core + 524
        0x08000bc4:    2a70        p*      CMP      r2,#0x70
        0x08000bc6:    d104        ..      BNE      0x8000bd2 ; _printf_core + 306
        0x08000bc8:    e09b        ..      B        0x8000d02 ; _printf_core + 610
        0x08000bca:    2a75        u*      CMP      r2,#0x75
        0x08000bcc:    d06f        o.      BEQ      0x8000cae ; _printf_core + 526
        0x08000bce:    2a78        x*      CMP      r2,#0x78
        0x08000bd0:    d06e        n.      BEQ      0x8000cb0 ; _printf_core + 528
        0x08000bd2:    4610        .F      MOV      r0,r2
        0x08000bd4:    e9dd120f    ....    LDRD     r1,r2,[sp,#0x3c]
        0x08000bd8:    4790        .G      BLX      r2
        0x08000bda:    1c76        v.      ADDS     r6,r6,#1
        0x08000bdc:    e150        P.      B        0x8000e80 ; _printf_core + 992
        0x08000bde:    f3c45002    ...P    UBFX     r0,r4,#20,#3
        0x08000be2:    2802        .(      CMP      r0,#2
        0x08000be4:    d006        ..      BEQ      0x8000bf4 ; _printf_core + 340
        0x08000be6:    2803        .(      CMP      r0,#3
        0x08000be8:    d009        ..      BEQ      0x8000bfe ; _printf_core + 350
        0x08000bea:    2804        .(      CMP      r0,#4
        0x08000bec:    cf01        ..      LDM      r7!,{r0}
        0x08000bee:    d009        ..      BEQ      0x8000c04 ; _printf_core + 356
        0x08000bf0:    6006        .`      STR      r6,[r0,#0]
        0x08000bf2:    e145        E.      B        0x8000e80 ; _printf_core + 992
        0x08000bf4:    cf01        ..      LDM      r7!,{r0}
        0x08000bf6:    17f1        ..      ASRS     r1,r6,#31
        0x08000bf8:    e9c06100    ...a    STRD     r6,r1,[r0,#0]
        0x08000bfc:    e140        @.      B        0x8000e80 ; _printf_core + 992
        0x08000bfe:    cf01        ..      LDM      r7!,{r0}
        0x08000c00:    8006        ..      STRH     r6,[r0,#0]
        0x08000c02:    e13d        =.      B        0x8000e80 ; _printf_core + 992
        0x08000c04:    7006        .p      STRB     r6,[r0,#0]
        0x08000c06:    e13b        ;.      B        0x8000e80 ; _printf_core + 992
        0x08000c08:    f8170b04    ....    LDRB     r0,[r7],#4
        0x08000c0c:    f88d0000    ....    STRB     r0,[sp,#0]
        0x08000c10:    2000        .       MOVS     r0,#0
        0x08000c12:    f88d0001    ....    STRB     r0,[sp,#1]
        0x08000c16:    46eb        .F      MOV      r11,sp
        0x08000c18:    2001        .       MOVS     r0,#1
        0x08000c1a:    e003        ..      B        0x8000c24 ; _printf_core + 388
        0x08000c1c:    f857bb04    W...    LDR      r11,[r7],#4
        0x08000c20:    f04f30ff    O..0    MOV      r0,#0xffffffff
        0x08000c24:    0761        a.      LSLS     r1,r4,#29
        0x08000c26:    f04f0100    O...    MOV      r1,#0
        0x08000c2a:    d402        ..      BMI      0x8000c32 ; _printf_core + 402
        0x08000c2c:    e00d        ..      B        0x8000c4a ; _printf_core + 426
        0x08000c2e:    f1080101    ....    ADD      r1,r8,#1
        0x08000c32:    4688        .F      MOV      r8,r1
        0x08000c34:    4549        IE      CMP      r1,r9
        0x08000c36:    da0f        ..      BGE      0x8000c58 ; _printf_core + 440
        0x08000c38:    4580        .E      CMP      r8,r0
        0x08000c3a:    dbf8        ..      BLT      0x8000c2e ; _printf_core + 398
        0x08000c3c:    f81b1008    ....    LDRB     r1,[r11,r8]
        0x08000c40:    2900        .)      CMP      r1,#0
        0x08000c42:    d1f4        ..      BNE      0x8000c2e ; _printf_core + 398
        0x08000c44:    e008        ..      B        0x8000c58 ; _printf_core + 440
        0x08000c46:    f1080101    ....    ADD      r1,r8,#1
        0x08000c4a:    4688        .F      MOV      r8,r1
        0x08000c4c:    4281        .B      CMP      r1,r0
        0x08000c4e:    dbfa        ..      BLT      0x8000c46 ; _printf_core + 422
        0x08000c50:    f81b1008    ....    LDRB     r1,[r11,r8]
        0x08000c54:    2900        .)      CMP      r1,#0
        0x08000c56:    d1f6        ..      BNE      0x8000c46 ; _printf_core + 422
        0x08000c58:    e9dd230f    ...#    LDRD     r2,r3,[sp,#0x3c]
        0x08000c5c:    ebaa0008    ....    SUB      r0,r10,r8
        0x08000c60:    4681        .F      MOV      r9,r0
        0x08000c62:    4621        !F      MOV      r1,r4
        0x08000c64:    f000f936    ..6.    BL       _printf_pre_padding ; 0x8000ed4
        0x08000c68:    4430        0D      ADD      r0,r0,r6
        0x08000c6a:    eb000608    ....    ADD      r6,r0,r8
        0x08000c6e:    e004        ..      B        0x8000c7a ; _printf_core + 474
        0x08000c70:    e9dd120f    ....    LDRD     r1,r2,[sp,#0x3c]
        0x08000c74:    f81b0b01    ....    LDRB     r0,[r11],#1
        0x08000c78:    4790        .G      BLX      r2
        0x08000c7a:    f1b80801    ....    SUBS     r8,r8,#1
        0x08000c7e:    d2f7        ..      BCS      0x8000c70 ; _printf_core + 464
        0x08000c80:    4621        !F      MOV      r1,r4
        0x08000c82:    4648        HF      MOV      r0,r9
        0x08000c84:    e0f7        ..      B        0x8000e76 ; _printf_core + 982
        0x08000c86:    210a        .!      MOVS     r1,#0xa
        0x08000c88:    f3c45302    ...S    UBFX     r3,r4,#20,#3
        0x08000c8c:    f04f0b00    O...    MOV      r11,#0
        0x08000c90:    9108        ..      STR      r1,[sp,#0x20]
        0x08000c92:    2b02        .+      CMP      r3,#2
        0x08000c94:    d004        ..      BEQ      0x8000ca0 ; _printf_core + 512
        0x08000c96:    cf01        ..      LDM      r7!,{r0}
        0x08000c98:    17c1        ..      ASRS     r1,r0,#31
        0x08000c9a:    2b03        .+      CMP      r3,#3
        0x08000c9c:    d009        ..      BEQ      0x8000cb2 ; _printf_core + 530
        0x08000c9e:    e00a        ..      B        0x8000cb6 ; _printf_core + 534
        0x08000ca0:    1dff        ..      ADDS     r7,r7,#7
        0x08000ca2:    f0270707    '...    BIC      r7,r7,#7
        0x08000ca6:    e8f70102    ....    LDRD     r0,r1,[r7],#8
        0x08000caa:    e008        ..      B        0x8000cbe ; _printf_core + 542
        0x08000cac:    e032        2.      B        0x8000d14 ; _printf_core + 628
        0x08000cae:    e01f        ..      B        0x8000cf0 ; _printf_core + 592
        0x08000cb0:    e020         .      B        0x8000cf4 ; _printf_core + 596
        0x08000cb2:    b200        ..      SXTH     r0,r0
        0x08000cb4:    17c1        ..      ASRS     r1,r0,#31
        0x08000cb6:    2b04        .+      CMP      r3,#4
        0x08000cb8:    d101        ..      BNE      0x8000cbe ; _printf_core + 542
        0x08000cba:    b240        @.      SXTB     r0,r0
        0x08000cbc:    17c1        ..      ASRS     r1,r0,#31
        0x08000cbe:    1e03        ..      SUBS     r3,r0,#0
        0x08000cc0:    f1710300    q...    SBCS     r3,r1,#0
        0x08000cc4:    da07        ..      BGE      0x8000cd6 ; _printf_core + 566
        0x08000cc6:    f04f0c00    O...    MOV      r12,#0
        0x08000cca:    ebd0000c    ....    RSBS     r0,r0,r12
        0x08000cce:    eb6c0101    l...    SBC      r1,r12,r1
        0x08000cd2:    232d        -#      MOVS     r3,#0x2d
        0x08000cd4:    e002        ..      B        0x8000cdc ; _printf_core + 572
        0x08000cd6:    0523        #.      LSLS     r3,r4,#20
        0x08000cd8:    d504        ..      BPL      0x8000ce4 ; _printf_core + 580
        0x08000cda:    232b        +#      MOVS     r3,#0x2b
        0x08000cdc:    f88d3024    ..$0    STRB     r3,[sp,#0x24]
        0x08000ce0:    2301        .#      MOVS     r3,#1
        0x08000ce2:    e003        ..      B        0x8000cec ; _printf_core + 588
        0x08000ce4:    07e3        ..      LSLS     r3,r4,#31
        0x08000ce6:    d001        ..      BEQ      0x8000cec ; _printf_core + 588
        0x08000ce8:    2320         #      MOVS     r3,#0x20
        0x08000cea:    e7f7        ..      B        0x8000cdc ; _printf_core + 572
        0x08000cec:    4698        .F      MOV      r8,r3
        0x08000cee:    e058        X.      B        0x8000da2 ; _printf_core + 770
        0x08000cf0:    210a        .!      MOVS     r1,#0xa
        0x08000cf2:    e010        ..      B        0x8000d16 ; _printf_core + 630
        0x08000cf4:    2110        .!      MOVS     r1,#0x10
        0x08000cf6:    e00e        ..      B        0x8000d16 ; _printf_core + 630
        0x08000cf8:    2010        .       MOVS     r0,#0x10
        0x08000cfa:    f04f0b00    O...    MOV      r11,#0
        0x08000cfe:    9008        ..      STR      r0,[sp,#0x20]
        0x08000d00:    e00c        ..      B        0x8000d1c ; _printf_core + 636
        0x08000d02:    2110        .!      MOVS     r1,#0x10
        0x08000d04:    f04f0b00    O...    MOV      r11,#0
        0x08000d08:    f0440404    D...    ORR      r4,r4,#4
        0x08000d0c:    f04f0908    O...    MOV      r9,#8
        0x08000d10:    9108        ..      STR      r1,[sp,#0x20]
        0x08000d12:    e003        ..      B        0x8000d1c ; _printf_core + 636
        0x08000d14:    2108        .!      MOVS     r1,#8
        0x08000d16:    f04f0b00    O...    MOV      r11,#0
        0x08000d1a:    9108        ..      STR      r1,[sp,#0x20]
        0x08000d1c:    f3c45302    ...S    UBFX     r3,r4,#20,#3
        0x08000d20:    2b02        .+      CMP      r3,#2
        0x08000d22:    d004        ..      BEQ      0x8000d2e ; _printf_core + 654
        0x08000d24:    cf01        ..      LDM      r7!,{r0}
        0x08000d26:    2100        .!      MOVS     r1,#0
        0x08000d28:    2b03        .+      CMP      r3,#3
        0x08000d2a:    d006        ..      BEQ      0x8000d3a ; _printf_core + 666
        0x08000d2c:    e006        ..      B        0x8000d3c ; _printf_core + 668
        0x08000d2e:    1dff        ..      ADDS     r7,r7,#7
        0x08000d30:    f0270707    '...    BIC      r7,r7,#7
        0x08000d34:    e8f70102    ....    LDRD     r0,r1,[r7],#8
        0x08000d38:    e003        ..      B        0x8000d42 ; _printf_core + 674
        0x08000d3a:    b280        ..      UXTH     r0,r0
        0x08000d3c:    2b04        .+      CMP      r3,#4
        0x08000d3e:    d100        ..      BNE      0x8000d42 ; _printf_core + 674
        0x08000d40:    b2c0        ..      UXTB     r0,r0
        0x08000d42:    f04f0800    O...    MOV      r8,#0
        0x08000d46:    0723        #.      LSLS     r3,r4,#28
        0x08000d48:    d52b        +.      BPL      0x8000da2 ; _printf_core + 770
        0x08000d4a:    2a70        p*      CMP      r2,#0x70
        0x08000d4c:    d007        ..      BEQ      0x8000d5e ; _printf_core + 702
        0x08000d4e:    f8ddc020    .. .    LDR      r12,[sp,#0x20]
        0x08000d52:    f08c0c10    ....    EOR      r12,r12,#0x10
        0x08000d56:    ea5c0c0b    \...    ORRS     r12,r12,r11
        0x08000d5a:    d005        ..      BEQ      0x8000d68 ; _printf_core + 712
        0x08000d5c:    e00e        ..      B        0x8000d7c ; _printf_core + 732
        0x08000d5e:    2340        @#      MOVS     r3,#0x40
        0x08000d60:    f88d3024    ..$0    STRB     r3,[sp,#0x24]
        0x08000d64:    2301        .#      MOVS     r3,#1
        0x08000d66:    e008        ..      B        0x8000d7a ; _printf_core + 730
        0x08000d68:    ea500301    P...    ORRS     r3,r0,r1
        0x08000d6c:    d006        ..      BEQ      0x8000d7c ; _printf_core + 732
        0x08000d6e:    2330        0#      MOVS     r3,#0x30
        0x08000d70:    f88d3024    ..$0    STRB     r3,[sp,#0x24]
        0x08000d74:    f88d2025    ..%     STRB     r2,[sp,#0x25]
        0x08000d78:    2302        .#      MOVS     r3,#2
        0x08000d7a:    4698        .F      MOV      r8,r3
        0x08000d7c:    f8ddc020    .. .    LDR      r12,[sp,#0x20]
        0x08000d80:    f08c0c08    ....    EOR      r12,r12,#8
        0x08000d84:    ea5c0c0b    \...    ORRS     r12,r12,r11
        0x08000d88:    d10b        ..      BNE      0x8000da2 ; _printf_core + 770
        0x08000d8a:    ea500301    P...    ORRS     r3,r0,r1
        0x08000d8e:    d101        ..      BNE      0x8000d94 ; _printf_core + 756
        0x08000d90:    0763        c.      LSLS     r3,r4,#29
        0x08000d92:    d506        ..      BPL      0x8000da2 ; _printf_core + 770
        0x08000d94:    2330        0#      MOVS     r3,#0x30
        0x08000d96:    f88d3024    ..$0    STRB     r3,[sp,#0x24]
        0x08000d9a:    f04f0801    O...    MOV      r8,#1
        0x08000d9e:    f1a90901    ....    SUB      r9,r9,#1
        0x08000da2:    2a58        X*      CMP      r2,#0x58
        0x08000da4:    d004        ..      BEQ      0x8000db0 ; _printf_core + 784
        0x08000da6:    a238        8.      ADR      r2,{pc}+0xe2 ; 0x8000e88
        0x08000da8:    920b        ..      STR      r2,[sp,#0x2c]
        0x08000daa:    aa08        ..      ADD      r2,sp,#0x20
        0x08000dac:    920a        ..      STR      r2,[sp,#0x28]
        0x08000dae:    e00b        ..      B        0x8000dc8 ; _printf_core + 808
        0x08000db0:    a23a        :.      ADR      r2,{pc}+0xec ; 0x8000e9c
        0x08000db2:    e7f9        ..      B        0x8000da8 ; _printf_core + 776
        0x08000db4:    465b        [F      MOV      r3,r11
        0x08000db6:    9a08        ..      LDR      r2,[sp,#0x20]
        0x08000db8:    f7fffa54    ..T.    BL       __aeabi_uldivmod ; 0x8000264
        0x08000dbc:    9b0b        ..      LDR      r3,[sp,#0x2c]
        0x08000dbe:    5c9b        .\      LDRB     r3,[r3,r2]
        0x08000dc0:    9a0a        ..      LDR      r2,[sp,#0x28]
        0x08000dc2:    1e52        R.      SUBS     r2,r2,#1
        0x08000dc4:    920a        ..      STR      r2,[sp,#0x28]
        0x08000dc6:    7013        .p      STRB     r3,[r2,#0]
        0x08000dc8:    ea500201    P...    ORRS     r2,r0,r1
        0x08000dcc:    d1f2        ..      BNE      0x8000db4 ; _printf_core + 788
        0x08000dce:    980a        ..      LDR      r0,[sp,#0x28]
        0x08000dd0:    ebad0000    ....    SUB      r0,sp,r0
        0x08000dd4:    f1000b20    .. .    ADD      r11,r0,#0x20
        0x08000dd8:    0760        `.      LSLS     r0,r4,#29
        0x08000dda:    d502        ..      BPL      0x8000de2 ; _printf_core + 834
        0x08000ddc:    f4243480    $..4    BIC      r4,r4,#0x10000
        0x08000de0:    e001        ..      B        0x8000de6 ; _printf_core + 838
        0x08000de2:    f04f0901    O...    MOV      r9,#1
        0x08000de6:    45d9        .E      CMP      r9,r11
        0x08000de8:    dd02        ..      BLE      0x8000df0 ; _printf_core + 848
        0x08000dea:    eba9000b    ....    SUB      r0,r9,r11
        0x08000dee:    e000        ..      B        0x8000df2 ; _printf_core + 850
        0x08000df0:    2000        .       MOVS     r0,#0
        0x08000df2:    eb00010b    ....    ADD      r1,r0,r11
        0x08000df6:    4441        AD      ADD      r1,r1,r8
        0x08000df8:    9008        ..      STR      r0,[sp,#0x20]
        0x08000dfa:    ebaa0a01    ....    SUB      r10,r10,r1
        0x08000dfe:    03e0        ..      LSLS     r0,r4,#15
        0x08000e00:    d406        ..      BMI      0x8000e10 ; _printf_core + 880
        0x08000e02:    e9dd230f    ...#    LDRD     r2,r3,[sp,#0x3c]
        0x08000e06:    4621        !F      MOV      r1,r4
        0x08000e08:    4650        PF      MOV      r0,r10
        0x08000e0a:    f000f863    ..c.    BL       _printf_pre_padding ; 0x8000ed4
        0x08000e0e:    4406        .D      ADD      r6,r6,r0
        0x08000e10:    f04f0900    O...    MOV      r9,#0
        0x08000e14:    e008        ..      B        0x8000e28 ; _printf_core + 904
        0x08000e16:    a909        ..      ADD      r1,sp,#0x24
        0x08000e18:    f8110009    ....    LDRB     r0,[r1,r9]
        0x08000e1c:    e9dd120f    ....    LDRD     r1,r2,[sp,#0x3c]
        0x08000e20:    4790        .G      BLX      r2
        0x08000e22:    f1090901    ....    ADD      r9,r9,#1
        0x08000e26:    1c76        v.      ADDS     r6,r6,#1
        0x08000e28:    45c1        .E      CMP      r9,r8
        0x08000e2a:    dbf4        ..      BLT      0x8000e16 ; _printf_core + 886
        0x08000e2c:    03e0        ..      LSLS     r0,r4,#15
        0x08000e2e:    d50c        ..      BPL      0x8000e4a ; _printf_core + 938
        0x08000e30:    e9dd230f    ...#    LDRD     r2,r3,[sp,#0x3c]
        0x08000e34:    4621        !F      MOV      r1,r4
        0x08000e36:    4650        PF      MOV      r0,r10
        0x08000e38:    f000f84c    ..L.    BL       _printf_pre_padding ; 0x8000ed4
        0x08000e3c:    4406        .D      ADD      r6,r6,r0
        0x08000e3e:    e004        ..      B        0x8000e4a ; _printf_core + 938
        0x08000e40:    e9dd120f    ....    LDRD     r1,r2,[sp,#0x3c]
        0x08000e44:    2030        0       MOVS     r0,#0x30
        0x08000e46:    4790        .G      BLX      r2
        0x08000e48:    1c76        v.      ADDS     r6,r6,#1
        0x08000e4a:    9908        ..      LDR      r1,[sp,#0x20]
        0x08000e4c:    1e48        H.      SUBS     r0,r1,#1
        0x08000e4e:    9008        ..      STR      r0,[sp,#0x20]
        0x08000e50:    2900        .)      CMP      r1,#0
        0x08000e52:    dcf5        ..      BGT      0x8000e40 ; _printf_core + 928
        0x08000e54:    e008        ..      B        0x8000e68 ; _printf_core + 968
        0x08000e56:    980a        ..      LDR      r0,[sp,#0x28]
        0x08000e58:    990a        ..      LDR      r1,[sp,#0x28]
        0x08000e5a:    7800        .x      LDRB     r0,[r0,#0]
        0x08000e5c:    1c49        I.      ADDS     r1,r1,#1
        0x08000e5e:    910a        ..      STR      r1,[sp,#0x28]
        0x08000e60:    e9dd120f    ....    LDRD     r1,r2,[sp,#0x3c]
        0x08000e64:    4790        .G      BLX      r2
        0x08000e66:    1c76        v.      ADDS     r6,r6,#1
        0x08000e68:    f1bb0100    ....    SUBS     r1,r11,#0
        0x08000e6c:    f1ab0b01    ....    SUB      r11,r11,#1
        0x08000e70:    dcf1        ..      BGT      0x8000e56 ; _printf_core + 950
        0x08000e72:    4621        !F      MOV      r1,r4
        0x08000e74:    4650        PF      MOV      r0,r10
        0x08000e76:    e9dd230f    ...#    LDRD     r2,r3,[sp,#0x3c]
        0x08000e7a:    f000f819    ....    BL       _printf_post_padding ; 0x8000eb0
        0x08000e7e:    4406        .D      ADD      r6,r6,r0
        0x08000e80:    1c6d        m.      ADDS     r5,r5,#1
        0x08000e82:    e61b        ..      B        0x8000abc ; _printf_core + 28
    $d
        0x08000e84:    00012809    .(..    DCD    75785
        0x08000e88:    33323130    0123    DCD    858927408
        0x08000e8c:    37363534    4567    DCD    926299444
        0x08000e90:    62613938    89ab    DCD    1650538808
        0x08000e94:    66656463    cdef    DCD    1717920867
        0x08000e98:    00000000    ....    DCD    0
        0x08000e9c:    33323130    0123    DCD    858927408
        0x08000ea0:    37363534    4567    DCD    926299444
        0x08000ea4:    42413938    89AB    DCD    1111570744
        0x08000ea8:    46454443    CDEF    DCD    1178944579
        0x08000eac:    00000000    ....    DCD    0
    $t
    i._printf_post_padding
    _printf_post_padding
        0x08000eb0:    e92d41f0    -..A    PUSH     {r4-r8,lr}
        0x08000eb4:    4604        .F      MOV      r4,r0
        0x08000eb6:    2500        .%      MOVS     r5,#0
        0x08000eb8:    461e        .F      MOV      r6,r3
        0x08000eba:    4617        .F      MOV      r7,r2
        0x08000ebc:    0488        ..      LSLS     r0,r1,#18
        0x08000ebe:    d404        ..      BMI      0x8000eca ; _printf_post_padding + 26
        0x08000ec0:    e005        ..      B        0x8000ece ; _printf_post_padding + 30
        0x08000ec2:    4639        9F      MOV      r1,r7
        0x08000ec4:    2020                MOVS     r0,#0x20
        0x08000ec6:    47b0        .G      BLX      r6
        0x08000ec8:    1c6d        m.      ADDS     r5,r5,#1
        0x08000eca:    1e64        d.      SUBS     r4,r4,#1
        0x08000ecc:    d5f9        ..      BPL      0x8000ec2 ; _printf_post_padding + 18
        0x08000ece:    4628        (F      MOV      r0,r5
        0x08000ed0:    e8bd81f0    ....    POP      {r4-r8,pc}
    i._printf_pre_padding
    _printf_pre_padding
        0x08000ed4:    e92d41f0    -..A    PUSH     {r4-r8,lr}
        0x08000ed8:    4604        .F      MOV      r4,r0
        0x08000eda:    2500        .%      MOVS     r5,#0
        0x08000edc:    461e        .F      MOV      r6,r3
        0x08000ede:    4690        .F      MOV      r8,r2
        0x08000ee0:    03c8        ..      LSLS     r0,r1,#15
        0x08000ee2:    d501        ..      BPL      0x8000ee8 ; _printf_pre_padding + 20
        0x08000ee4:    2730        0'      MOVS     r7,#0x30
        0x08000ee6:    e000        ..      B        0x8000eea ; _printf_pre_padding + 22
        0x08000ee8:    2720         '      MOVS     r7,#0x20
        0x08000eea:    0488        ..      LSLS     r0,r1,#18
        0x08000eec:    d504        ..      BPL      0x8000ef8 ; _printf_pre_padding + 36
        0x08000eee:    e005        ..      B        0x8000efc ; _printf_pre_padding + 40
        0x08000ef0:    4641        AF      MOV      r1,r8
        0x08000ef2:    4638        8F      MOV      r0,r7
        0x08000ef4:    47b0        .G      BLX      r6
        0x08000ef6:    1c6d        m.      ADDS     r5,r5,#1
        0x08000ef8:    1e64        d.      SUBS     r4,r4,#1
        0x08000efa:    d5f9        ..      BPL      0x8000ef0 ; _printf_pre_padding + 28
        0x08000efc:    4628        (F      MOV      r0,r5
        0x08000efe:    e8bd81f0    ....    POP      {r4-r8,pc}
        0x08000f02:    0000        ..      MOVS     r0,r0
    i.cmd_dump
    cmd_dump
        0x08000f04:    e92d41f0    -..A    PUSH     {r4-r8,lr}
        0x08000f08:    4920         I      LDR      r1,[pc,#128] ; [0x8000f8c] = 0x200001dc
        0x08000f0a:    2200        ."      MOVS     r2,#0
        0x08000f0c:    6848        Hh      LDR      r0,[r1,#4]
        0x08000f0e:    4611        .F      MOV      r1,r2
        0x08000f10:    f7fffa12    ....    BL       strtol ; 0x8000338
        0x08000f14:    4606        .F      MOV      r6,r0
        0x08000f16:    491d        .I      LDR      r1,[pc,#116] ; [0x8000f8c] = 0x200001dc
        0x08000f18:    2200        ."      MOVS     r2,#0
        0x08000f1a:    6888        .h      LDR      r0,[r1,#8]
        0x08000f1c:    4611        .F      MOV      r1,r2
        0x08000f1e:    f7fffa0b    ....    BL       strtol ; 0x8000338
        0x08000f22:    4607        .F      MOV      r7,r0
        0x08000f24:    4635        5F      MOV      r5,r6
        0x08000f26:    bf00        ..      NOP      
        0x08000f28:    4819        .H      LDR      r0,[pc,#100] ; [0x8000f90] = 0x20000000
        0x08000f2a:    6800        .h      LDR      r0,[r0,#0]
        0x08000f2c:    b118        ..      CBZ      r0,0x8000f36 ; cmd_dump + 50
        0x08000f2e:    4629        )F      MOV      r1,r5
        0x08000f30:    a018        ..      ADR      r0,{pc}+0x64 ; 0x8000f94
        0x08000f32:    f7fffd6f    ..o.    BL       __0printf$8 ; 0x8000a14
        0x08000f36:    bf00        ..      NOP      
        0x08000f38:    2400        .$      MOVS     r4,#0
        0x08000f3a:    e019        ..      B        0x8000f70 ; cmd_dump + 108
        0x08000f3c:    bf00        ..      NOP      
        0x08000f3e:    4814        .H      LDR      r0,[pc,#80] ; [0x8000f90] = 0x20000000
        0x08000f40:    6800        .h      LDR      r0,[r0,#0]
        0x08000f42:    b130        0.      CBZ      r0,0x8000f52 ; cmd_dump + 78
        0x08000f44:    4620         F      MOV      r0,r4
        0x08000f46:    1c64        d.      ADDS     r4,r4,#1
        0x08000f48:    f8551020    U. .    LDR      r1,[r5,r0,LSL #2]
        0x08000f4c:    a014        ..      ADR      r0,{pc}+0x54 ; 0x8000fa0
        0x08000f4e:    f7fffd61    ..a.    BL       __0printf$8 ; 0x8000a14
        0x08000f52:    bf00        ..      NOP      
        0x08000f54:    b164        d.      CBZ      r4,0x8000f70 ; cmd_dump + 108
        0x08000f56:    f0040003    ....    AND      r0,r4,#3
        0x08000f5a:    b948        H.      CBNZ     r0,0x8000f70 ; cmd_dump + 108
        0x08000f5c:    bf00        ..      NOP      
        0x08000f5e:    480c        .H      LDR      r0,[pc,#48] ; [0x8000f90] = 0x20000000
        0x08000f60:    6800        .h      LDR      r0,[r0,#0]
        0x08000f62:    b120         .      CBZ      r0,0x8000f6e ; cmd_dump + 106
        0x08000f64:    eb050184    ....    ADD      r1,r5,r4,LSL #2
        0x08000f68:    a00f        ..      ADR      r0,{pc}+0x40 ; 0x8000fa8
        0x08000f6a:    f7fffd53    ..S.    BL       __0printf$8 ; 0x8000a14
        0x08000f6e:    bf00        ..      NOP      
        0x08000f70:    42bc        .B      CMP      r4,r7
        0x08000f72:    d3e3        ..      BCC      0x8000f3c ; cmd_dump + 56
        0x08000f74:    bf00        ..      NOP      
        0x08000f76:    4806        .H      LDR      r0,[pc,#24] ; [0x8000f90] = 0x20000000
        0x08000f78:    6800        .h      LDR      r0,[r0,#0]
        0x08000f7a:    b110        ..      CBZ      r0,0x8000f82 ; cmd_dump + 126
        0x08000f7c:    a00e        ..      ADR      r0,{pc}+0x3c ; 0x8000fb8
        0x08000f7e:    f7fffd49    ..I.    BL       __0printf$8 ; 0x8000a14
        0x08000f82:    bf00        ..      NOP      
        0x08000f84:    2000        .       MOVS     r0,#0
        0x08000f86:    e8bd81f0    ....    POP      {r4-r8,pc}
    $d
        0x08000f8a:    0000        ..      DCW    0
        0x08000f8c:    200001dc    ...     DCD    536871388
        0x08000f90:    20000000    ...     DCD    536870912
        0x08000f94:    2578305b    [0x%    DCD    628633691
        0x08000f98:    5d783830    08x]    DCD    1568159792
        0x08000f9c:    0000203a    : ..    DCD    8250
        0x08000fa0:    30257830    0x%0    DCD    807761968
        0x08000fa4:    00207838    8x .    DCD    2127928
        0x08000fa8:    305b0a0d    ..[0    DCD    811272717
        0x08000fac:    38302578    x%08    DCD    942679416
        0x08000fb0:    203a5d78    x]:     DCD    540695928
        0x08000fb4:    00000000    ....    DCD    0
        0x08000fb8:    0000000a    ....    DCD    10
    $t
    i.cmd_exec
    cmd_exec
        0x08000fbc:    e92d4ffe    -..O    PUSH     {r1-r11,lr}
        0x08000fc0:    491d        .I      LDR      r1,[pc,#116] ; [0x8001038] = 0x200001dc
        0x08000fc2:    2200        ."      MOVS     r2,#0
        0x08000fc4:    6848        Hh      LDR      r0,[r1,#4]
        0x08000fc6:    4611        .F      MOV      r1,r2
        0x08000fc8:    f7fff9b6    ....    BL       strtol ; 0x8000338
        0x08000fcc:    4605        .F      MOV      r5,r0
        0x08000fce:    491a        .I      LDR      r1,[pc,#104] ; [0x8001038] = 0x200001dc
        0x08000fd0:    2200        ."      MOVS     r2,#0
        0x08000fd2:    6888        .h      LDR      r0,[r1,#8]
        0x08000fd4:    4611        .F      MOV      r1,r2
        0x08000fd6:    f7fff9af    ....    BL       strtol ; 0x8000338
        0x08000fda:    4681        .F      MOV      r9,r0
        0x08000fdc:    4916        .I      LDR      r1,[pc,#88] ; [0x8001038] = 0x200001dc
        0x08000fde:    2200        ."      MOVS     r2,#0
        0x08000fe0:    68c8        .h      LDR      r0,[r1,#0xc]
        0x08000fe2:    4611        .F      MOV      r1,r2
        0x08000fe4:    f7fff9a8    ....    BL       strtol ; 0x8000338
        0x08000fe8:    4682        .F      MOV      r10,r0
        0x08000fea:    4913        .I      LDR      r1,[pc,#76] ; [0x8001038] = 0x200001dc
        0x08000fec:    2200        ."      MOVS     r2,#0
        0x08000fee:    6908        .i      LDR      r0,[r1,#0x10]
        0x08000ff0:    4611        .F      MOV      r1,r2
        0x08000ff2:    f7fff9a1    ....    BL       strtol ; 0x8000338
        0x08000ff6:    4606        .F      MOV      r6,r0
        0x08000ff8:    490f        .I      LDR      r1,[pc,#60] ; [0x8001038] = 0x200001dc
        0x08000ffa:    2200        ."      MOVS     r2,#0
        0x08000ffc:    6948        Hi      LDR      r0,[r1,#0x14]
        0x08000ffe:    4611        .F      MOV      r1,r2
        0x08001000:    f7fff99a    ....    BL       strtol ; 0x8000338
        0x08001004:    4607        .F      MOV      r7,r0
        0x08001006:    f0450801    E...    ORR      r8,r5,#1
        0x0800100a:    463b        ;F      MOV      r3,r7
        0x0800100c:    4632        2F      MOV      r2,r6
        0x0800100e:    4651        QF      MOV      r1,r10
        0x08001010:    4648        HF      MOV      r0,r9
        0x08001012:    47c0        .G      BLX      r8
        0x08001014:    4604        .F      MOV      r4,r0
        0x08001016:    bf00        ..      NOP      
        0x08001018:    4808        .H      LDR      r0,[pc,#32] ; [0x800103c] = 0x20000000
        0x0800101a:    6800        .h      LDR      r0,[r0,#0]
        0x0800101c:    b140        @.      CBZ      r0,0x8001030 ; cmd_exec + 116
        0x0800101e:    4653        SF      MOV      r3,r10
        0x08001020:    464a        JF      MOV      r2,r9
        0x08001022:    4629        )F      MOV      r1,r5
        0x08001024:    a006        ..      ADR      r0,{pc}+0x1c ; 0x8001040
        0x08001026:    e9cd6700    ...g    STRD     r6,r7,[sp,#0]
        0x0800102a:    9402        ..      STR      r4,[sp,#8]
        0x0800102c:    f7fffcf2    ....    BL       __0printf$8 ; 0x8000a14
        0x08001030:    bf00        ..      NOP      
        0x08001032:    4620         F      MOV      r0,r4
        0x08001034:    e8bd8ffe    ....    POP      {r1-r11,pc}
    $d
        0x08001038:    200001dc    ...     DCD    536871388
        0x0800103c:    20000000    ...     DCD    536870912
        0x08001040:    63657865    exec    DCD    1667594341
        0x08001044:    20657475    ute     DCD    543519861
        0x08001048:    78257830    0x%x    DCD    2015721520
        0x0800104c:    78302820     (0x    DCD    2016421920
        0x08001050:    30207825    %x 0    DCD    807434277
        0x08001054:    20782578    x%x     DCD    544744824
        0x08001058:    78257830    0x%x    DCD    2015721520
        0x0800105c:    25783020     0x%    DCD    628633632
        0x08001060:    72202978    x) r    DCD    1914710392
        0x08001064:    72757465    etur    DCD    1920300133
        0x08001068:    7830206e    n 0x    DCD    2016419950
        0x0800106c:    000a7825    %x..    DCD    686117
    $t
    i.cmd_help
    cmd_help
        0x08001070:    b510        ..      PUSH     {r4,lr}
        0x08001072:    2400        .$      MOVS     r4,#0
        0x08001074:    e012        ..      B        0x800109c ; cmd_help + 44
        0x08001076:    bf00        ..      NOP      
        0x08001078:    480a        .H      LDR      r0,[pc,#40] ; [0x80010a4] = 0x20000000
        0x0800107a:    6800        .h      LDR      r0,[r0,#0]
        0x0800107c:    b160        `.      CBZ      r0,0x8001098 ; cmd_help + 40
        0x0800107e:    eb040044    ..D.    ADD      r0,r4,r4,LSL #1
        0x08001082:    4b09        .K      LDR      r3,[pc,#36] ; [0x80010a8] = 0x2000002c
        0x08001084:    eb030080    ....    ADD      r0,r3,r0,LSL #2
        0x08001088:    6882        .h      LDR      r2,[r0,#8]
        0x0800108a:    eb040044    ..D.    ADD      r0,r4,r4,LSL #1
        0x0800108e:    f8531020    S. .    LDR      r1,[r3,r0,LSL #2]
        0x08001092:    a006        ..      ADR      r0,{pc}+0x1a ; 0x80010ac
        0x08001094:    f7fffcbe    ....    BL       __0printf$8 ; 0x8000a14
        0x08001098:    bf00        ..      NOP      
        0x0800109a:    1c64        d.      ADDS     r4,r4,#1
        0x0800109c:    2c06        .,      CMP      r4,#6
        0x0800109e:    d3ea        ..      BCC      0x8001076 ; cmd_help + 6
        0x080010a0:    2000        .       MOVS     r0,#0
        0x080010a2:    bd10        ..      POP      {r4,pc}
    $d
        0x080010a4:    20000000    ...     DCD    536870912
        0x080010a8:    2000002c    ,..     DCD    536870956
        0x080010ac:    093a7325    %s:.    DCD    154825509
        0x080010b0:    73250909    ..%s    DCD    1931806985
        0x080010b4:    0000000a    ....    DCD    10
    $t
    i.cmd_read
    cmd_read
        0x080010b8:    b570        p.      PUSH     {r4-r6,lr}
        0x080010ba:    490a        .I      LDR      r1,[pc,#40] ; [0x80010e4] = 0x200001dc
        0x080010bc:    2200        ."      MOVS     r2,#0
        0x080010be:    6848        Hh      LDR      r0,[r1,#4]
        0x080010c0:    4611        .F      MOV      r1,r2
        0x080010c2:    f7fff939    ..9.    BL       strtol ; 0x8000338
        0x080010c6:    4604        .F      MOV      r4,r0
        0x080010c8:    6825        %h      LDR      r5,[r4,#0]
        0x080010ca:    bf00        ..      NOP      
        0x080010cc:    4806        .H      LDR      r0,[pc,#24] ; [0x80010e8] = 0x20000000
        0x080010ce:    6800        .h      LDR      r0,[r0,#0]
        0x080010d0:    b120         .      CBZ      r0,0x80010dc ; cmd_read + 36
        0x080010d2:    462a        *F      MOV      r2,r5
        0x080010d4:    4621        !F      MOV      r1,r4
        0x080010d6:    a005        ..      ADR      r0,{pc}+0x16 ; 0x80010ec
        0x080010d8:    f7fffc9c    ....    BL       __0printf$8 ; 0x8000a14
        0x080010dc:    bf00        ..      NOP      
        0x080010de:    2000        .       MOVS     r0,#0
        0x080010e0:    bd70        p.      POP      {r4-r6,pc}
    $d
        0x080010e2:    0000        ..      DCW    0
        0x080010e4:    200001dc    ...     DCD    536871388
        0x080010e8:    20000000    ...     DCD    536870912
        0x080010ec:    2578305b    [0x%    DCD    628633691
        0x080010f0:    203a5d78    x]:     DCD    540695928
        0x080010f4:    78257830    0x%x    DCD    2015721520
        0x080010f8:    0000000a    ....    DCD    10
    $t
    i.cmd_systest
    cmd_systest
        0x080010fc:    b510        ..      PUSH     {r4,lr}
        0x080010fe:    4903        .I      LDR      r1,[pc,#12] ; [0x800110c] = 0x200001dc
        0x08001100:    4803        .H      LDR      r0,[pc,#12] ; [0x8001110] = 0x20000018
        0x08001102:    6800        .h      LDR      r0,[r0,#0]
        0x08001104:    f001fbce    ....    BL       systest ; 0x80028a4
        0x08001108:    bd10        ..      POP      {r4,pc}
    $d
        0x0800110a:    0000        ..      DCW    0
        0x0800110c:    200001dc    ...     DCD    536871388
        0x08001110:    20000018    ...     DCD    536870936
    $t
    i.cmd_write
    cmd_write
        0x08001114:    b570        p.      PUSH     {r4-r6,lr}
        0x08001116:    490d        .I      LDR      r1,[pc,#52] ; [0x800114c] = 0x200001dc
        0x08001118:    2200        ."      MOVS     r2,#0
        0x0800111a:    6848        Hh      LDR      r0,[r1,#4]
        0x0800111c:    4611        .F      MOV      r1,r2
        0x0800111e:    f7fff90b    ....    BL       strtol ; 0x8000338
        0x08001122:    4604        .F      MOV      r4,r0
        0x08001124:    4909        .I      LDR      r1,[pc,#36] ; [0x800114c] = 0x200001dc
        0x08001126:    2200        ."      MOVS     r2,#0
        0x08001128:    6888        .h      LDR      r0,[r1,#8]
        0x0800112a:    4611        .F      MOV      r1,r2
        0x0800112c:    f7fff904    ....    BL       strtol ; 0x8000338
        0x08001130:    4605        .F      MOV      r5,r0
        0x08001132:    6025        %`      STR      r5,[r4,#0]
        0x08001134:    bf00        ..      NOP      
        0x08001136:    4806        .H      LDR      r0,[pc,#24] ; [0x8001150] = 0x20000000
        0x08001138:    6800        .h      LDR      r0,[r0,#0]
        0x0800113a:    b120         .      CBZ      r0,0x8001146 ; cmd_write + 50
        0x0800113c:    4622        "F      MOV      r2,r4
        0x0800113e:    4629        )F      MOV      r1,r5
        0x08001140:    a004        ..      ADR      r0,{pc}+0x14 ; 0x8001154
        0x08001142:    f7fffc67    ..g.    BL       __0printf$8 ; 0x8000a14
        0x08001146:    bf00        ..      NOP      
        0x08001148:    2000        .       MOVS     r0,#0
        0x0800114a:    bd70        p.      POP      {r4-r6,pc}
    $d
        0x0800114c:    200001dc    ...     DCD    536871388
        0x08001150:    20000000    ...     DCD    536870912
        0x08001154:    25783028    (0x%    DCD    628633640
        0x08001158:    29783830    08x)    DCD    695744560
        0x0800115c:    5b3e2d20     ->[    DCD    1530801440
        0x08001160:    30257830    0x%0    DCD    807761968
        0x08001164:    0a5d7838    8x].    DCD    173897784
        0x08001168:    00000000    ....    DCD    0
    $t
    i.dbg_init
    dbg_init
        0x0800116c:    4808        .H      LDR      r0,[pc,#32] ; [0x8001190] = 0xe000edfc
        0x0800116e:    6800        .h      LDR      r0,[r0,#0]
        0x08001170:    01c0        ..      LSLS     r0,r0,#7
        0x08001172:    d50b        ..      BPL      0x800118c ; dbg_init + 32
        0x08001174:    4807        .H      LDR      r0,[pc,#28] ; [0x8001194] = 0xe0000e80
        0x08001176:    6800        .h      LDR      r0,[r0,#0]
        0x08001178:    07c0        ..      LSLS     r0,r0,#31
        0x0800117a:    d007        ..      BEQ      0x800118c ; dbg_init + 32
        0x0800117c:    4805        .H      LDR      r0,[pc,#20] ; [0x8001194] = 0xe0000e80
        0x0800117e:    3880        .8      SUBS     r0,r0,#0x80
        0x08001180:    6800        .h      LDR      r0,[r0,#0]
        0x08001182:    2800        .(      CMP      r0,#0
        0x08001184:    da02        ..      BGE      0x800118c ; dbg_init + 32
        0x08001186:    4904        .I      LDR      r1,[pc,#16] ; [0x8001198] = 0x200000c8
        0x08001188:    2001        .       MOVS     r0,#1
        0x0800118a:    7008        .p      STRB     r0,[r1,#0]
        0x0800118c:    4770        pG      BX       lr
    $d
        0x0800118e:    0000        ..      DCW    0
        0x08001190:    e000edfc    ....    DCD    3758157308
        0x08001194:    e0000e80    ....    DCD    3758100096
        0x08001198:    200000c8    ...     DCD    536871112
    $t
    i.dbg_task_notify
    dbg_task_notify
        0x0800119c:    f04f4260    O.`B    MOV      r2,#0xe0000000
        0x080011a0:    6fd3        .o      LDR      r3,[r2,#0x7c]
        0x080011a2:    2b00        .+      CMP      r3,#0
        0x080011a4:    d0fc        ..      BEQ      0x80011a0 ; dbg_task_notify + 4
        0x080011a6:    6b03        .k      LDR      r3,[r0,#0x30]
        0x080011a8:    67d3        .g      STR      r3,[r2,#0x7c]
        0x080011aa:    6fd3        .o      LDR      r3,[r2,#0x7c]
        0x080011ac:    2b00        .+      CMP      r3,#0
        0x080011ae:    d0fc        ..      BEQ      0x80011aa ; dbg_task_notify + 14
        0x080011b0:    78c0        .x      LDRB     r0,[r0,#3]
        0x080011b2:    ea402001    @..     ORR      r0,r0,r1,LSL #8
        0x080011b6:    f8a2007c    ..|.    STRH     r0,[r2,#0x7c]
        0x080011ba:    4770        pG      BX       lr
    i.dbg_task_switch
    dbg_task_switch
        0x080011bc:    f04f4160    O.`A    MOV      r1,#0xe0000000
        0x080011c0:    6fca        .o      LDR      r2,[r1,#0x7c]
        0x080011c2:    2a00        .*      CMP      r2,#0
        0x080011c4:    d0fc        ..      BEQ      0x80011c0 ; dbg_task_switch + 4
        0x080011c6:    f881007c    ..|.    STRB     r0,[r1,#0x7c]
        0x080011ca:    4770        pG      BX       lr
    i.fputc
    fputc
        0x080011cc:    b570        p.      PUSH     {r4-r6,lr}
        0x080011ce:    4604        .F      MOV      r4,r0
        0x080011d0:    460d        .F      MOV      r5,r1
        0x080011d2:    b2e1        ..      UXTB     r1,r4
        0x080011d4:    4805        .H      LDR      r0,[pc,#20] ; [0x80011ec] = 0x40013800
        0x080011d6:    f7fffbf5    ....    BL       USART_SendData ; 0x80009c4
        0x080011da:    bf00        ..      NOP      
        0x080011dc:    2180        .!      MOVS     r1,#0x80
        0x080011de:    4803        .H      LDR      r0,[pc,#12] ; [0x80011ec] = 0x40013800
        0x080011e0:    f7fffbde    ....    BL       USART_GetFlagStatus ; 0x80009a0
        0x080011e4:    2800        .(      CMP      r0,#0
        0x080011e6:    d0f9        ..      BEQ      0x80011dc ; fputc + 16
        0x080011e8:    4620         F      MOV      r0,r4
        0x080011ea:    bd70        p.      POP      {r4-r6,pc}
    $d
        0x080011ec:    40013800    .8.@    DCD    1073821696
    $t
    i.get_cmd_index
    get_cmd_index
        0x080011f0:    b570        p.      PUSH     {r4-r6,lr}
        0x080011f2:    4605        .F      MOV      r5,r0
        0x080011f4:    2400        .$      MOVS     r4,#0
        0x080011f6:    e00b        ..      B        0x8001210 ; get_cmd_index + 32
        0x080011f8:    eb040144    ..D.    ADD      r1,r4,r4,LSL #1
        0x080011fc:    4a07        .J      LDR      r2,[pc,#28] ; [0x800121c] = 0x2000002c
        0x080011fe:    f8520021    R.!.    LDR      r0,[r2,r1,LSL #2]
        0x08001202:    4629        )F      MOV      r1,r5
        0x08001204:    f7fff88a    ....    BL       strcmp ; 0x800031c
        0x08001208:    b908        ..      CBNZ     r0,0x800120e ; get_cmd_index + 30
        0x0800120a:    4620         F      MOV      r0,r4
        0x0800120c:    bd70        p.      POP      {r4-r6,pc}
        0x0800120e:    1c64        d.      ADDS     r4,r4,#1
        0x08001210:    2c06        .,      CMP      r4,#6
        0x08001212:    d3f1        ..      BCC      0x80011f8 ; get_cmd_index + 8
        0x08001214:    f04f30ff    O..0    MOV      r0,#0xffffffff
        0x08001218:    e7f8        ..      B        0x800120c ; get_cmd_index + 28
    $d
        0x0800121a:    0000        ..      DCW    0
        0x0800121c:    2000002c    ,..     DCD    536870956
    $t
    i.get_cmd_index
    get_cmd_index
        0x08001220:    b570        p.      PUSH     {r4-r6,lr}
        0x08001222:    4605        .F      MOV      r5,r0
        0x08001224:    2400        .$      MOVS     r4,#0
        0x08001226:    e00b        ..      B        0x8001240 ; get_cmd_index + 32
        0x08001228:    eb040144    ..D.    ADD      r1,r4,r4,LSL #1
        0x0800122c:    4a07        .J      LDR      r2,[pc,#28] ; [0x800124c] = 0x20000080
        0x0800122e:    f8520021    R.!.    LDR      r0,[r2,r1,LSL #2]
        0x08001232:    4629        )F      MOV      r1,r5
        0x08001234:    f7fff872    ..r.    BL       strcmp ; 0x800031c
        0x08001238:    b908        ..      CBNZ     r0,0x800123e ; get_cmd_index + 30
        0x0800123a:    4620         F      MOV      r0,r4
        0x0800123c:    bd70        p.      POP      {r4-r6,pc}
        0x0800123e:    1c64        d.      ADDS     r4,r4,#1
        0x08001240:    2c00        .,      CMP      r4,#0
        0x08001242:    d0f1        ..      BEQ      0x8001228 ; get_cmd_index + 8
        0x08001244:    f04f30ff    O..0    MOV      r0,#0xffffffff
        0x08001248:    e7f8        ..      B        0x800123c ; get_cmd_index + 28
    $d
        0x0800124a:    0000        ..      DCW    0
        0x0800124c:    20000080    ...     DCD    536871040
    $t
    i.gpio_init
    gpio_init
        0x08001250:    b5f8        ..      PUSH     {r3-r7,lr}
        0x08001252:    4604        .F      MOV      r4,r0
        0x08001254:    460d        .F      MOV      r5,r1
        0x08001256:    4616        .F      MOV      r6,r2
        0x08001258:    2c0a        .,      CMP      r4,#0xa
        0x0800125a:    d20d        ..      BCS      0x8001278 ; gpio_init + 40
        0x0800125c:    2c10        .,      CMP      r4,#0x10
        0x0800125e:    d90b        ..      BLS      0x8001278 ; gpio_init + 40
        0x08001260:    bf00        ..      NOP      
        0x08001262:    481b        .H      LDR      r0,[pc,#108] ; [0x80012d0] = 0x20000000
        0x08001264:    6800        .h      LDR      r0,[r0,#0]
        0x08001266:    b118        ..      CBZ      r0,0x8001270 ; gpio_init + 32
        0x08001268:    4621        !F      MOV      r1,r4
        0x0800126a:    a01a        ..      ADR      r0,{pc}+0x6a ; 0x80012d4
        0x0800126c:    f7fffbd2    ....    BL       __0printf$8 ; 0x8000a14
        0x08001270:    bf00        ..      NOP      
        0x08001272:    f04f30ff    O..0    MOV      r0,#0xffffffff
        0x08001276:    bdf8        ..      POP      {r3-r7,pc}
        0x08001278:    2d10        .-      CMP      r5,#0x10
        0x0800127a:    d90b        ..      BLS      0x8001294 ; gpio_init + 68
        0x0800127c:    bf00        ..      NOP      
        0x0800127e:    4814        .H      LDR      r0,[pc,#80] ; [0x80012d0] = 0x20000000
        0x08001280:    6800        .h      LDR      r0,[r0,#0]
        0x08001282:    b118        ..      CBZ      r0,0x800128c ; gpio_init + 60
        0x08001284:    4629        )F      MOV      r1,r5
        0x08001286:    a018        ..      ADR      r0,{pc}+0x62 ; 0x80012e8
        0x08001288:    f7fffbc4    ....    BL       __0printf$8 ; 0x8000a14
        0x0800128c:    bf00        ..      NOP      
        0x0800128e:    f04f30ff    O..0    MOV      r0,#0xffffffff
        0x08001292:    e7f0        ..      B        0x8001276 ; gpio_init + 38
        0x08001294:    f1a4010a    ....    SUB      r1,r4,#0xa
        0x08001298:    2204        ."      MOVS     r2,#4
        0x0800129a:    fa02f001    ....    LSL      r0,r2,r1
        0x0800129e:    2101        .!      MOVS     r1,#1
        0x080012a0:    f7fff9e4    ....    BL       RCC_APB2PeriphClockCmd ; 0x800066c
        0x080012a4:    2001        .       MOVS     r0,#1
        0x080012a6:    40a8        .@      LSLS     r0,r0,r5
        0x080012a8:    b280        ..      UXTH     r0,r0
        0x080012aa:    f8ad0000    ....    STRH     r0,[sp,#0]
        0x080012ae:    2003        .       MOVS     r0,#3
        0x080012b0:    f88d0002    ....    STRB     r0,[sp,#2]
        0x080012b4:    b2f0        ..      UXTB     r0,r6
        0x080012b6:    f88d0003    ....    STRB     r0,[sp,#3]
        0x080012ba:    f1a4010a    ....    SUB      r1,r4,#0xa
        0x080012be:    4a0f        .J      LDR      r2,[pc,#60] ; [0x80012fc] = 0x40010800
        0x080012c0:    1513        ..      ASRS     r3,r2,#20
        0x080012c2:    fb032001    ...     MLA      r0,r3,r1,r2
        0x080012c6:    4669        iF      MOV      r1,sp
        0x080012c8:    f7fff904    ....    BL       GPIO_Init ; 0x80004d4
        0x080012cc:    2000        .       MOVS     r0,#0
        0x080012ce:    e7d2        ..      B        0x8001276 ; gpio_init + 38
    $d
        0x080012d0:    20000000    ...     DCD    536870912
        0x080012d4:    61766e69    inva    DCD    1635151465
        0x080012d8:    2064696c    lid     DCD    543451500
        0x080012dc:    756f7267    grou    DCD    1970238055
        0x080012e0:    78302070    p 0x    DCD    2016419952
        0x080012e4:    000a7825    %x..    DCD    686117
        0x080012e8:    61766e69    inva    DCD    1635151465
        0x080012ec:    2064696c    lid     DCD    543451500
        0x080012f0:    65646e69    inde    DCD    1701080681
        0x080012f4:    78302078    x 0x    DCD    2016419960
        0x080012f8:    000a7825    %x..    DCD    686117
        0x080012fc:    40010800    ...@    DCD    1073809408
    $t
    i.gpio_read
    gpio_read
        0x08001300:    b570        p.      PUSH     {r4-r6,lr}
        0x08001302:    4604        .F      MOV      r4,r0
        0x08001304:    460d        .F      MOV      r5,r1
        0x08001306:    2c0a        .,      CMP      r4,#0xa
        0x08001308:    d20d        ..      BCS      0x8001326 ; gpio_read + 38
        0x0800130a:    2c10        .,      CMP      r4,#0x10
        0x0800130c:    d90b        ..      BLS      0x8001326 ; gpio_read + 38
        0x0800130e:    bf00        ..      NOP      
        0x08001310:    4812        .H      LDR      r0,[pc,#72] ; [0x800135c] = 0x20000000
        0x08001312:    6800        .h      LDR      r0,[r0,#0]
        0x08001314:    b118        ..      CBZ      r0,0x800131e ; gpio_read + 30
        0x08001316:    4621        !F      MOV      r1,r4
        0x08001318:    a011        ..      ADR      r0,{pc}+0x48 ; 0x8001360
        0x0800131a:    f7fffb7b    ..{.    BL       __0printf$8 ; 0x8000a14
        0x0800131e:    bf00        ..      NOP      
        0x08001320:    f04f30ff    O..0    MOV      r0,#0xffffffff
        0x08001324:    bd70        p.      POP      {r4-r6,pc}
        0x08001326:    2d10        .-      CMP      r5,#0x10
        0x08001328:    d90b        ..      BLS      0x8001342 ; gpio_read + 66
        0x0800132a:    bf00        ..      NOP      
        0x0800132c:    480b        .H      LDR      r0,[pc,#44] ; [0x800135c] = 0x20000000
        0x0800132e:    6800        .h      LDR      r0,[r0,#0]
        0x08001330:    b118        ..      CBZ      r0,0x800133a ; gpio_read + 58
        0x08001332:    4629        )F      MOV      r1,r5
        0x08001334:    a00f        ..      ADR      r0,{pc}+0x40 ; 0x8001374
        0x08001336:    f7fffb6d    ..m.    BL       __0printf$8 ; 0x8000a14
        0x0800133a:    bf00        ..      NOP      
        0x0800133c:    f04f30ff    O..0    MOV      r0,#0xffffffff
        0x08001340:    e7f0        ..      B        0x8001324 ; gpio_read + 36
        0x08001342:    2201        ."      MOVS     r2,#1
        0x08001344:    40aa        .@      LSLS     r2,r2,r5
        0x08001346:    b291        ..      UXTH     r1,r2
        0x08001348:    f1a4020a    ....    SUB      r2,r4,#0xa
        0x0800134c:    4b0e        .K      LDR      r3,[pc,#56] ; [0x8001388] = 0x40010800
        0x0800134e:    151e        ..      ASRS     r6,r3,#20
        0x08001350:    fb063002    ...0    MLA      r0,r6,r2,r3
        0x08001354:    f7fff949    ..I.    BL       GPIO_ReadInputDataBit ; 0x80005ea
        0x08001358:    e7e4        ..      B        0x8001324 ; gpio_read + 36
    $d
        0x0800135a:    0000        ..      DCW    0
        0x0800135c:    20000000    ...     DCD    536870912
        0x08001360:    61766e69    inva    DCD    1635151465
        0x08001364:    2064696c    lid     DCD    543451500
        0x08001368:    756f7267    grou    DCD    1970238055
        0x0800136c:    78302070    p 0x    DCD    2016419952
        0x08001370:    000a7825    %x..    DCD    686117
        0x08001374:    61766e69    inva    DCD    1635151465
        0x08001378:    2064696c    lid     DCD    543451500
        0x0800137c:    65646e69    inde    DCD    1701080681
        0x08001380:    78302078    x 0x    DCD    2016419960
        0x08001384:    000a7825    %x..    DCD    686117
        0x08001388:    40010800    ...@    DCD    1073809408
    $t
    i.gpio_write
    gpio_write
        0x0800138c:    e92d41f0    -..A    PUSH     {r4-r8,lr}
        0x08001390:    4604        .F      MOV      r4,r0
        0x08001392:    460d        .F      MOV      r5,r1
        0x08001394:    4616        .F      MOV      r6,r2
        0x08001396:    2c0a        .,      CMP      r4,#0xa
        0x08001398:    d20e        ..      BCS      0x80013b8 ; gpio_write + 44
        0x0800139a:    2c10        .,      CMP      r4,#0x10
        0x0800139c:    d90c        ..      BLS      0x80013b8 ; gpio_write + 44
        0x0800139e:    bf00        ..      NOP      
        0x080013a0:    4819        .H      LDR      r0,[pc,#100] ; [0x8001408] = 0x20000000
        0x080013a2:    6800        .h      LDR      r0,[r0,#0]
        0x080013a4:    b118        ..      CBZ      r0,0x80013ae ; gpio_write + 34
        0x080013a6:    4621        !F      MOV      r1,r4
        0x080013a8:    a018        ..      ADR      r0,{pc}+0x64 ; 0x800140c
        0x080013aa:    f7fffb33    ..3.    BL       __0printf$8 ; 0x8000a14
        0x080013ae:    bf00        ..      NOP      
        0x080013b0:    f04f30ff    O..0    MOV      r0,#0xffffffff
        0x080013b4:    e8bd81f0    ....    POP      {r4-r8,pc}
        0x080013b8:    2d10        .-      CMP      r5,#0x10
        0x080013ba:    d90b        ..      BLS      0x80013d4 ; gpio_write + 72
        0x080013bc:    bf00        ..      NOP      
        0x080013be:    4812        .H      LDR      r0,[pc,#72] ; [0x8001408] = 0x20000000
        0x080013c0:    6800        .h      LDR      r0,[r0,#0]
        0x080013c2:    b118        ..      CBZ      r0,0x80013cc ; gpio_write + 64
        0x080013c4:    4629        )F      MOV      r1,r5
        0x080013c6:    a016        ..      ADR      r0,{pc}+0x5a ; 0x8001420
        0x080013c8:    f7fffb24    ..$.    BL       __0printf$8 ; 0x8000a14
        0x080013cc:    bf00        ..      NOP      
        0x080013ce:    f04f30ff    O..0    MOV      r0,#0xffffffff
        0x080013d2:    e7ef        ..      B        0x80013b4 ; gpio_write + 40
        0x080013d4:    b15e        ^.      CBZ      r6,0x80013ee ; gpio_write + 98
        0x080013d6:    2201        ."      MOVS     r2,#1
        0x080013d8:    40aa        .@      LSLS     r2,r2,r5
        0x080013da:    b291        ..      UXTH     r1,r2
        0x080013dc:    f1a4020a    ....    SUB      r2,r4,#0xa
        0x080013e0:    4b14        .K      LDR      r3,[pc,#80] ; [0x8001434] = 0x40010800
        0x080013e2:    151f        ..      ASRS     r7,r3,#20
        0x080013e4:    fb073002    ...0    MLA      r0,r7,r2,r3
        0x080013e8:    f7fff90a    ....    BL       GPIO_SetBits ; 0x8000600
        0x080013ec:    e00a        ..      B        0x8001404 ; gpio_write + 120
        0x080013ee:    2201        ."      MOVS     r2,#1
        0x080013f0:    40aa        .@      LSLS     r2,r2,r5
        0x080013f2:    b291        ..      UXTH     r1,r2
        0x080013f4:    f1a4020a    ....    SUB      r2,r4,#0xa
        0x080013f8:    4b0e        .K      LDR      r3,[pc,#56] ; [0x8001434] = 0x40010800
        0x080013fa:    151f        ..      ASRS     r7,r3,#20
        0x080013fc:    fb073002    ...0    MLA      r0,r7,r2,r3
        0x08001400:    f7fff8fc    ....    BL       GPIO_ResetBits ; 0x80005fc
        0x08001404:    2000        .       MOVS     r0,#0
        0x08001406:    e7d5        ..      B        0x80013b4 ; gpio_write + 40
    $d
        0x08001408:    20000000    ...     DCD    536870912
        0x0800140c:    61766e69    inva    DCD    1635151465
        0x08001410:    2064696c    lid     DCD    543451500
        0x08001414:    756f7267    grou    DCD    1970238055
        0x08001418:    78302070    p 0x    DCD    2016419952
        0x0800141c:    000a7825    %x..    DCD    686117
        0x08001420:    61766e69    inva    DCD    1635151465
        0x08001424:    2064696c    lid     DCD    543451500
        0x08001428:    65646e69    inde    DCD    1701080681
        0x0800142c:    78302078    x 0x    DCD    2016419960
        0x08001430:    000a7825    %x..    DCD    686117
        0x08001434:    40010800    ...@    DCD    1073809408
    $t
    i.isrMessageGet
    isrMessageGet
        0x08001438:    b50e        ..      PUSH     {r1-r3,lr}
        0x0800143a:    2280        ."      MOVS     r2,#0x80
        0x0800143c:    b100        ..      CBZ      r0,0x8001440 ; isrMessageGet + 8
        0x0800143e:    b109        ..      CBZ      r1,0x8001444 ; isrMessageGet + 12
        0x08001440:    4610        .F      MOV      r0,r2
        0x08001442:    e00a        ..      B        0x800145a ; isrMessageGet + 34
        0x08001444:    7801        .x      LDRB     r1,[r0,#0]
        0x08001446:    2901        .)      CMP      r1,#1
        0x08001448:    d1fa        ..      BNE      0x8001440 ; isrMessageGet + 8
        0x0800144a:    a901        ..      ADD      r1,sp,#4
        0x0800144c:    f000f820    .. .    BL       isr_mbx_receive ; 0x8001490
        0x08001450:    2804        .(      CMP      r0,#4
        0x08001452:    d001        ..      BEQ      0x8001458 ; isrMessageGet + 32
        0x08001454:    2000        .       MOVS     r0,#0
        0x08001456:    e000        ..      B        0x800145a ; isrMessageGet + 34
        0x08001458:    2010        .       MOVS     r0,#0x10
        0x0800145a:    e9dd1201    ....    LDRD     r1,r2,[sp,#4]
        0x0800145e:    b003        ..      ADD      sp,sp,#0xc
        0x08001460:    bd00        ..      POP      {pc}
    i.isrMessagePut
    isrMessagePut
        0x08001462:    b570        p.      PUSH     {r4-r6,lr}
        0x08001464:    460d        .F      MOV      r5,r1
        0x08001466:    0004        ..      MOVS     r4,r0
        0x08001468:    d003        ..      BEQ      0x8001472 ; isrMessagePut + 16
        0x0800146a:    b912        ..      CBNZ     r2,0x8001472 ; isrMessagePut + 16
        0x0800146c:    7820         x      LDRB     r0,[r4,#0]
        0x0800146e:    2801        .(      CMP      r0,#1
        0x08001470:    d001        ..      BEQ      0x8001476 ; isrMessagePut + 20
        0x08001472:    2080        .       MOVS     r0,#0x80
        0x08001474:    bd70        p.      POP      {r4-r6,pc}
        0x08001476:    4620         F      MOV      r0,r4
        0x08001478:    f000fb48    ..H.    BL       rt_mbx_check ; 0x8001b0c
        0x0800147c:    b128        (.      CBZ      r0,0x800148a ; isrMessagePut + 40
        0x0800147e:    4629        )F      MOV      r1,r5
        0x08001480:    4620         F      MOV      r0,r4
        0x08001482:    f000f82e    ....    BL       isr_mbx_send ; 0x80014e2
        0x08001486:    2000        .       MOVS     r0,#0
        0x08001488:    bd70        p.      POP      {r4-r6,pc}
        0x0800148a:    2081        .       MOVS     r0,#0x81
        0x0800148c:    bd70        p.      POP      {r4-r6,pc}
        0x0800148e:    0000        ..      MOVS     r0,r0
    i.isr_mbx_receive
    isr_mbx_receive
        0x08001490:    b510        ..      PUSH     {r4,lr}
        0x08001492:    4604        .F      MOV      r4,r0
        0x08001494:    8980        ..      LDRH     r0,[r0,#0xc]
        0x08001496:    2800        .(      CMP      r0,#0
        0x08001498:    d022        ".      BEQ      0x80014e0 ; isr_mbx_receive + 80
        0x0800149a:    8960        `.      LDRH     r0,[r4,#0xa]
        0x0800149c:    eb040080    ....    ADD      r0,r4,r0,LSL #2
        0x080014a0:    6900        .i      LDR      r0,[r0,#0x10]
        0x080014a2:    6008        .`      STR      r0,[r1,#0]
        0x080014a4:    7860        `x      LDRB     r0,[r4,#1]
        0x080014a6:    2802        .(      CMP      r0,#2
        0x080014a8:    d105        ..      BNE      0x80014b6 ; isr_mbx_receive + 38
        0x080014aa:    2100        .!      MOVS     r1,#0
        0x080014ac:    4620         F      MOV      r0,r4
        0x080014ae:    f000fcc9    ....    BL       rt_psq_enq ; 0x8001e44
        0x080014b2:    f000fcb7    ....    BL       rt_psh_req ; 0x8001e24
        0x080014b6:    f104000c    ....    ADD      r0,r4,#0xc
        0x080014ba:    bf00        ..      NOP      
        0x080014bc:    e8d01f5f    .._.    LDREXH   r1,[r0]
        0x080014c0:    1e49        I.      SUBS     r1,r1,#1
        0x080014c2:    b28a        ..      UXTH     r2,r1
        0x080014c4:    e8c02f51    ..Q/    STREXH   r1,r2,[r0]
        0x080014c8:    2900        .)      CMP      r1,#0
        0x080014ca:    d1f7        ..      BNE      0x80014bc ; isr_mbx_receive + 44
        0x080014cc:    8960        `.      LDRH     r0,[r4,#0xa]
        0x080014ce:    1c40        @.      ADDS     r0,r0,#1
        0x080014d0:    b280        ..      UXTH     r0,r0
        0x080014d2:    8160        `.      STRH     r0,[r4,#0xa]
        0x080014d4:    89e1        ..      LDRH     r1,[r4,#0xe]
        0x080014d6:    4288        .B      CMP      r0,r1
        0x080014d8:    d101        ..      BNE      0x80014de ; isr_mbx_receive + 78
        0x080014da:    2000        .       MOVS     r0,#0
        0x080014dc:    8160        `.      STRH     r0,[r4,#0xa]
        0x080014de:    2004        .       MOVS     r0,#4
        0x080014e0:    bd10        ..      POP      {r4,pc}
    i.isr_mbx_send
    isr_mbx_send
        0x080014e2:    b510        ..      PUSH     {r4,lr}
        0x080014e4:    f000fcae    ....    BL       rt_psq_enq ; 0x8001e44
        0x080014e8:    e8bd4010    ...@    POP      {r4,lr}
        0x080014ec:    f000bc9a    ....    B.W      rt_psh_req ; 0x8001e24
    i.main
    main
        0x080014f0:    2210        ."      MOVS     r2,#0x10
        0x080014f2:    2101        .!      MOVS     r1,#1
        0x080014f4:    200b        .       MOVS     r0,#0xb
        0x080014f6:    f7fffeab    ....    BL       gpio_init ; 0x8001250
        0x080014fa:    2200        ."      MOVS     r2,#0
        0x080014fc:    2101        .!      MOVS     r1,#1
        0x080014fe:    200b        .       MOVS     r0,#0xb
        0x08001500:    f7ffff44    ..D.    BL       gpio_write ; 0x800138c
        0x08001504:    2201        ."      MOVS     r2,#1
        0x08001506:    4611        .F      MOV      r1,r2
        0x08001508:    200b        .       MOVS     r0,#0xb
        0x0800150a:    f7ffff3f    ..?.    BL       gpio_write ; 0x800138c
        0x0800150e:    bf00        ..      NOP      
        0x08001510:    e7fe        ..      B        0x8001510 ; main + 32
        0x08001512:    0000        ..      MOVS     r0,r0
    i.mdelay
    mdelay
        0x08001514:    b530        0.      PUSH     {r4,r5,lr}
        0x08001516:    4b0c        .K      LDR      r3,[pc,#48] ; [0x8001548] = 0x20000078
        0x08001518:    6819        .h      LDR      r1,[r3,#0]
        0x0800151a:    685a        Zh      LDR      r2,[r3,#4]
        0x0800151c:    4b0b        .K      LDR      r3,[pc,#44] ; [0x800154c] = 0xf4240
        0x0800151e:    4298        .B      CMP      r0,r3
        0x08001520:    d801        ..      BHI      0x8001526 ; mdelay + 18
        0x08001522:    4603        .F      MOV      r3,r0
        0x08001524:    e000        ..      B        0x8001528 ; mdelay + 20
        0x08001526:    4b09        .K      LDR      r3,[pc,#36] ; [0x800154c] = 0xf4240
        0x08001528:    4618        .F      MOV      r0,r3
        0x0800152a:    e00a        ..      B        0x8001542 ; mdelay + 46
        0x0800152c:    4b06        .K      LDR      r3,[pc,#24] ; [0x8001548] = 0x20000078
        0x0800152e:    681c        .h      LDR      r4,[r3,#0]
        0x08001530:    685b        [h      LDR      r3,[r3,#4]
        0x08001532:    1a64        d.      SUBS     r4,r4,r1
        0x08001534:    eb630302    c...    SBC      r3,r3,r2
        0x08001538:    1a24        $.      SUBS     r4,r4,r0
        0x0800153a:    f1730300    s...    SBCS     r3,r3,#0
        0x0800153e:    d300        ..      BCC      0x8001542 ; mdelay + 46
        0x08001540:    e000        ..      B        0x8001544 ; mdelay + 48
        0x08001542:    e7f3        ..      B        0x800152c ; mdelay + 24
        0x08001544:    bf00        ..      NOP      
        0x08001546:    bd30        0.      POP      {r4,r5,pc}
    $d
        0x08001548:    20000078    x..     DCD    536871032
        0x0800154c:    000f4240    @B..    DCD    1000000
    $t
    i.osKernelInitialize
    osKernelInitialize
        0x08001550:    f3ef8005    ....    MRS      r0,IPSR
        0x08001554:    b108        ..      CBZ      r0,0x800155a ; osKernelInitialize + 10
        0x08001556:    2082        .       MOVS     r0,#0x82
        0x08001558:    4770        pG      BX       lr
        0x0800155a:    f3ef8014    ....    MRS      r0,CONTROL
        0x0800155e:    07c0        ..      LSLS     r0,r0,#31
        0x08001560:    d003        ..      BEQ      0x800156a ; osKernelInitialize + 26
        0x08001562:    f8dfc00c    ....    LDR      r12,[pc,#12] ; [0x8001570] = 0x80025b1
        0x08001566:    df00        ..      SVC      #0x0 ; formerly SWI
        0x08001568:    4770        pG      BX       lr
        0x0800156a:    f001b821    ..!.    B.W      svcKernelInitialize ; 0x80025b0
    $d
        0x0800156e:    0000        ..      DCW    0
        0x08001570:    080025b1    .%..    DCD    134227377
    $t
    i.osKernelStart
    osKernelStart
        0x08001574:    b088        ..      SUB      sp,sp,#0x20
        0x08001576:    f3ef8005    ....    MRS      r0,IPSR
        0x0800157a:    b110        ..      CBZ      r0,0x8001582 ; osKernelStart + 14
        0x0800157c:    2082        .       MOVS     r0,#0x82
        0x0800157e:    b008        ..      ADD      sp,sp,#0x20
        0x08001580:    4770        pG      BX       lr
        0x08001582:    f3ef8014    ....    MRS      r0,CONTROL
        0x08001586:    f0100103    ....    ANDS     r1,r0,#3
        0x0800158a:    4813        .H      LDR      r0,[pc,#76] ; [0x80015d8] = 0x8002b28
        0x0800158c:    d006        ..      BEQ      0x800159c ; osKernelStart + 40
        0x0800158e:    2901        .)      CMP      r1,#1
        0x08001590:    d01b        ..      BEQ      0x80015ca ; osKernelStart + 86
        0x08001592:    2902        .)      CMP      r1,#2
        0x08001594:    d011        ..      BEQ      0x80015ba ; osKernelStart + 70
        0x08001596:    2903        .)      CMP      r1,#3
        0x08001598:    d119        ..      BNE      0x80015ce ; osKernelStart + 90
        0x0800159a:    e013        ..      B        0x80015c4 ; osKernelStart + 80
        0x0800159c:    a908        ..      ADD      r1,sp,#0x20
        0x0800159e:    f3818809    ....    MSR      PSP,r1
        0x080015a2:    7800        .x      LDRB     r0,[r0,#0]
        0x080015a4:    07c0        ..      LSLS     r0,r0,#31
        0x080015a6:    d00b        ..      BEQ      0x80015c0 ; osKernelStart + 76
        0x080015a8:    f05f0002    _...    MOVS.W   r0,#2
        0x080015ac:    f3808814    ....    MSR      CONTROL,r0
        0x080015b0:    f3bf8f4f    ..O.    DSB      
        0x080015b4:    f3bf8f6f    ..o.    ISB      
        0x080015b8:    e009        ..      B        0x80015ce ; osKernelStart + 90
        0x080015ba:    7800        .x      LDRB     r0,[r0,#0]
        0x080015bc:    07c0        ..      LSLS     r0,r0,#31
        0x080015be:    d106        ..      BNE      0x80015ce ; osKernelStart + 90
        0x080015c0:    2003        .       MOVS     r0,#3
        0x080015c2:    e7f3        ..      B        0x80015ac ; osKernelStart + 56
        0x080015c4:    7800        .x      LDRB     r0,[r0,#0]
        0x080015c6:    07c0        ..      LSLS     r0,r0,#31
        0x080015c8:    d001        ..      BEQ      0x80015ce ; osKernelStart + 90
        0x080015ca:    20ff        .       MOVS     r0,#0xff
        0x080015cc:    e7d7        ..      B        0x800157e ; osKernelStart + 10
        0x080015ce:    f8dfc00c    ....    LDR      r12,[pc,#12] ; [0x80015dc] = 0x8002621
        0x080015d2:    df00        ..      SVC      #0x0 ; formerly SWI
        0x080015d4:    e7d3        ..      B        0x800157e ; osKernelStart + 10
    $d
        0x080015d6:    0000        ..      DCW    0
        0x080015d8:    08002b28    (+..    DCD    134228776
        0x080015dc:    08002621    !&..    DCD    134227489
    $t
    i.osMailAlloc
    osMailAlloc
        0x080015e0:    f3ef8205    ....    MRS      r2,IPSR
        0x080015e4:    f04f0300    O...    MOV      r3,#0
        0x080015e8:    b112        ..      CBZ      r2,0x80015f0 ; osMailAlloc + 16
        0x080015ea:    2201        ."      MOVS     r2,#1
        0x080015ec:    f001b8f4    ....    B.W      sysMailAlloc ; 0x80027d8
        0x080015f0:    2200        ."      MOVS     r2,#0
        0x080015f2:    f8dfc008    ....    LDR      r12,[pc,#8] ; [0x80015fc] = 0x80027d9
        0x080015f6:    df00        ..      SVC      #0x0 ; formerly SWI
        0x080015f8:    4770        pG      BX       lr
    $d
        0x080015fa:    0000        ..      DCW    0
        0x080015fc:    080027d9    .'..    DCD    134227929
    $t
    i.osMailPut
    osMailPut
        0x08001600:    b120         .      CBZ      r0,0x800160c ; osMailPut + 12
        0x08001602:    b129        ).      CBZ      r1,0x8001610 ; osMailPut + 16
        0x08001604:    6800        .h      LDR      r0,[r0,#0]
        0x08001606:    2200        ."      MOVS     r2,#0
        0x08001608:    f000b810    ....    B.W      osMessagePut ; 0x800162c
        0x0800160c:    2080        .       MOVS     r0,#0x80
        0x0800160e:    4770        pG      BX       lr
        0x08001610:    2086        .       MOVS     r0,#0x86
        0x08001612:    4770        pG      BX       lr
    i.osMessageGet
    osMessageGet
        0x08001614:    f3ef8205    ....    MRS      r2,IPSR
        0x08001618:    b10a        ..      CBZ      r2,0x800161e ; osMessageGet + 10
        0x0800161a:    f7ffbf0d    ....    B.W      isrMessageGet ; 0x8001438
        0x0800161e:    f8dfc008    ....    LDR      r12,[pc,#8] ; [0x8001628] = 0x800268d
        0x08001622:    df00        ..      SVC      #0x0 ; formerly SWI
        0x08001624:    4770        pG      BX       lr
    $d
        0x08001626:    0000        ..      DCW    0
        0x08001628:    0800268d    .&..    DCD    134227597
    $t
    i.osMessagePut
    osMessagePut
        0x0800162c:    f3ef8305    ....    MRS      r3,IPSR
        0x08001630:    b10b        ..      CBZ      r3,0x8001636 ; osMessagePut + 10
        0x08001632:    f7ffbf16    ....    B.W      isrMessagePut ; 0x8001462
        0x08001636:    f8dfc008    ....    LDR      r12,[pc,#8] ; [0x8001640] = 0x80026c7
        0x0800163a:    df00        ..      SVC      #0x0 ; formerly SWI
        0x0800163c:    4770        pG      BX       lr
    $d
        0x0800163e:    0000        ..      DCW    0
        0x08001640:    080026c7    .&..    DCD    134227655
    $t
    i.osThreadCreate
    osThreadCreate
        0x08001644:    f3ef8205    ....    MRS      r2,IPSR
        0x08001648:    b10a        ..      CBZ      r2,0x800164e ; osThreadCreate + 10
        0x0800164a:    2000        .       MOVS     r0,#0
        0x0800164c:    4770        pG      BX       lr
        0x0800164e:    f3ef8214    ....    MRS      r2,CONTROL
        0x08001652:    4b06        .K      LDR      r3,[pc,#24] ; [0x800166c] = 0x200000ac
        0x08001654:    f0020201    ....    AND      r2,r2,#1
        0x08001658:    785b        [x      LDRB     r3,[r3,#1]
        0x0800165a:    431a        .C      ORRS     r2,r2,r3
        0x0800165c:    d003        ..      BEQ      0x8001666 ; osThreadCreate + 34
        0x0800165e:    f8dfc010    ....    LDR      r12,[pc,#16] ; [0x8001670] = 0x80026fd
        0x08001662:    df00        ..      SVC      #0x0 ; formerly SWI
        0x08001664:    4770        pG      BX       lr
        0x08001666:    f001b849    ..I.    B.W      svcThreadCreate ; 0x80026fc
    $d
        0x0800166a:    0000        ..      DCW    0
        0x0800166c:    200000ac    ...     DCD    536871084
        0x08001670:    080026fd    .&..    DCD    134227709
    $t
    i.osThreadExit
    osThreadExit
        0x08001674:    f8dfc00c    ....    LDR      r12,[pc,#12] ; [0x8001684] = 0x800276d
        0x08001678:    df00        ..      SVC      #0x0 ; formerly SWI
        0x0800167a:    f8dfc00c    ....    LDR      r12,[pc,#12] ; [0x8001688] = 0x8002789
        0x0800167e:    df00        ..      SVC      #0x0 ; formerly SWI
        0x08001680:    e7fe        ..      B        0x8001680 ; osThreadExit + 12
    $d
        0x08001682:    0000        ..      DCW    0
        0x08001684:    0800276d    m'..    DCD    134227821
        0x08001688:    08002789    .'..    DCD    134227849
    $t
    i.osTimerCall
    osTimerCall
        0x0800168c:    f8dfc004    ....    LDR      r12,[pc,#4] ; [0x8001694] = 0x80027c1
        0x08001690:    df00        ..      SVC      #0x0 ; formerly SWI
        0x08001692:    4770        pG      BX       lr
    $d
        0x08001694:    080027c1    .'..    DCD    134227905
    $t
    i.osTimerThread
    osTimerThread
        0x08001698:    4c09        .L      LDR      r4,[pc,#36] ; [0x80016c0] = 0x20000090
        0x0800169a:    f04f35ff    O..5    MOV      r5,#0xffffffff
        0x0800169e:    4629        )F      MOV      r1,r5
        0x080016a0:    6820         h      LDR      r0,[r4,#0]
        0x080016a2:    f7ffffb7    ....    BL       osMessageGet ; 0x8001614
        0x080016a6:    4602        .F      MOV      r2,r0
        0x080016a8:    4608        .F      MOV      r0,r1
        0x080016aa:    2a10        .*      CMP      r2,#0x10
        0x080016ac:    d1f7        ..      BNE      0x800169e ; osTimerThread + 6
        0x080016ae:    f7ffffed    ....    BL       osTimerCall ; 0x800168c
        0x080016b2:    2800        .(      CMP      r0,#0
        0x080016b4:    d0f3        ..      BEQ      0x800169e ; osTimerThread + 6
        0x080016b6:    4602        .F      MOV      r2,r0
        0x080016b8:    4608        .F      MOV      r0,r1
        0x080016ba:    4790        .G      BLX      r2
        0x080016bc:    e7ef        ..      B        0x800169e ; osTimerThread + 6
    $d
        0x080016be:    0000        ..      DCW    0
        0x080016c0:    20000090    ...     DCD    536871056
    $t
    i.os_error
    os_error
        0x080016c4:    4604        .F      MOV      r4,r0
        0x080016c6:    2c01        .,      CMP      r4,#1
        0x080016c8:    d006        ..      BEQ      0x80016d8 ; os_error + 20
        0x080016ca:    2c02        .,      CMP      r4,#2
        0x080016cc:    d005        ..      BEQ      0x80016da ; os_error + 22
        0x080016ce:    2c03        .,      CMP      r4,#3
        0x080016d0:    d004        ..      BEQ      0x80016dc ; os_error + 24
        0x080016d2:    2c04        .,      CMP      r4,#4
        0x080016d4:    d104        ..      BNE      0x80016e0 ; os_error + 28
        0x080016d6:    e002        ..      B        0x80016de ; os_error + 26
        0x080016d8:    e002        ..      B        0x80016e0 ; os_error + 28
        0x080016da:    e001        ..      B        0x80016e0 ; os_error + 28
        0x080016dc:    e000        ..      B        0x80016e0 ; os_error + 28
        0x080016de:    bf00        ..      NOP      
        0x080016e0:    bf00        ..      NOP      
        0x080016e2:    4623        #F      MOV      r3,r4
        0x080016e4:    f240122d    @.-.    MOV      r2,#0x12d
        0x080016e8:    4902        .I      LDR      r1,[pc,#8] ; [0x80016f4] = 0x8002b66
        0x080016ea:    a003        ..      ADR      r0,{pc}+0xe ; 0x80016f8
        0x080016ec:    f7fff992    ....    BL       __0printf$8 ; 0x8000a14
        0x080016f0:    bf00        ..      NOP      
        0x080016f2:    e7fe        ..      B        0x80016f2 ; os_error + 46
    $d
        0x080016f4:    08002b66    f+..    DCD    134228838
        0x080016f8:    25206e69    in %    DCD    622882409
        0x080016fc:    64252073    s %d    DCD    1680154739
        0x08001700:    72726520     err    DCD    1920099616
        0x08001704:    635f726f    or_c    DCD    1667199599
        0x08001708:    2065646f    ode     DCD    543515759
        0x0800170c:    78257830    0x%x    DCD    2015721520
        0x08001710:    0000000a    ....    DCD    10
    $t
    i.os_idle_demon
    os_idle_demon
        0x08001714:    bf00        ..      NOP      
        0x08001716:    e7fe        ..      B        0x8001716 ; os_idle_demon + 2
    i.os_tick_init
    os_tick_init
        0x08001718:    4807        .H      LDR      r0,[pc,#28] ; [0x8001738] = 0x8002b24
        0x0800171a:    6801        .h      LDR      r1,[r0,#0]
        0x0800171c:    f04f20e0    O..     MOV      r0,#0xe000e000
        0x08001720:    6141        Aa      STR      r1,[r0,#0x14]
        0x08001722:    2100        .!      MOVS     r1,#0
        0x08001724:    6181        .a      STR      r1,[r0,#0x18]
        0x08001726:    2107        .!      MOVS     r1,#7
        0x08001728:    6101        .a      STR      r1,[r0,#0x10]
        0x0800172a:    4804        .H      LDR      r0,[pc,#16] ; [0x800173c] = 0xe000ed20
        0x0800172c:    6801        .h      LDR      r1,[r0,#0]
        0x0800172e:    f041417f    A..A    ORR      r1,r1,#0xff000000
        0x08001732:    6001        .`      STR      r1,[r0,#0]
        0x08001734:    1740        @.      ASRS     r0,r0,#29
        0x08001736:    4770        pG      BX       lr
    $d
        0x08001738:    08002b24    $+..    DCD    134228772
        0x0800173c:    e000ed20     ...    DCD    3758157088
    $t
    i.os_tick_irqack
    os_tick_irqack
        0x08001740:    4770        pG      BX       lr
        0x08001742:    0000        ..      MOVS     r0,r0
    i.parse_cmd
    parse_cmd
        0x08001744:    b570        p.      PUSH     {r4-r6,lr}
        0x08001746:    4605        .F      MOV      r5,r0
        0x08001748:    211c        .!      MOVS     r1,#0x1c
        0x0800174a:    4816        .H      LDR      r0,[pc,#88] ; [0x80017a4] = 0x200001dc
        0x0800174c:    f7fefdd4    ....    BL       __aeabi_memclr ; 0x80002f8
        0x08001750:    2600        .&      MOVS     r6,#0
        0x08001752:    2400        .$      MOVS     r4,#0
        0x08001754:    e015        ..      B        0x8001782 ; parse_cmd + 62
        0x08001756:    e000        ..      B        0x800175a ; parse_cmd + 22
        0x08001758:    1c64        d.      ADDS     r4,r4,#1
        0x0800175a:    5d28        (]      LDRB     r0,[r5,r4]
        0x0800175c:    2820         (      CMP      r0,#0x20
        0x0800175e:    d0fb        ..      BEQ      0x8001758 ; parse_cmd + 20
        0x08001760:    192a        *.      ADDS     r2,r5,r4
        0x08001762:    4630        0F      MOV      r0,r6
        0x08001764:    1c76        v.      ADDS     r6,r6,#1
        0x08001766:    490f        .I      LDR      r1,[pc,#60] ; [0x80017a4] = 0x200001dc
        0x08001768:    f8412020    A.      STR      r2,[r1,r0,LSL #2]
        0x0800176c:    2e07        ..      CMP      r6,#7
        0x0800176e:    d100        ..      BNE      0x8001772 ; parse_cmd + 46
        0x08001770:    e00a        ..      B        0x8001788 ; parse_cmd + 68
        0x08001772:    e000        ..      B        0x8001776 ; parse_cmd + 50
        0x08001774:    1c64        d.      ADDS     r4,r4,#1
        0x08001776:    5d28        (]      LDRB     r0,[r5,r4]
        0x08001778:    2820         (      CMP      r0,#0x20
        0x0800177a:    d002        ..      BEQ      0x8001782 ; parse_cmd + 62
        0x0800177c:    5d28        (]      LDRB     r0,[r5,r4]
        0x0800177e:    2800        .(      CMP      r0,#0
        0x08001780:    d1f8        ..      BNE      0x8001774 ; parse_cmd + 48
        0x08001782:    5d28        (]      LDRB     r0,[r5,r4]
        0x08001784:    2800        .(      CMP      r0,#0
        0x08001786:    d1e6        ..      BNE      0x8001756 ; parse_cmd + 18
        0x08001788:    bf00        ..      NOP      
        0x0800178a:    2400        .$      MOVS     r4,#0
        0x0800178c:    e005        ..      B        0x800179a ; parse_cmd + 86
        0x0800178e:    5d28        (]      LDRB     r0,[r5,r4]
        0x08001790:    2820         (      CMP      r0,#0x20
        0x08001792:    d101        ..      BNE      0x8001798 ; parse_cmd + 84
        0x08001794:    2000        .       MOVS     r0,#0
        0x08001796:    5528        (U      STRB     r0,[r5,r4]
        0x08001798:    1c64        d.      ADDS     r4,r4,#1
        0x0800179a:    5d28        (]      LDRB     r0,[r5,r4]
        0x0800179c:    2800        .(      CMP      r0,#0
        0x0800179e:    d1f6        ..      BNE      0x800178e ; parse_cmd + 74
        0x080017a0:    bd70        p.      POP      {r4-r6,pc}
    $d
        0x080017a2:    0000        ..      DCW    0
        0x080017a4:    200001dc    ...     DCD    536871388
    $t
    i.rt_alloc_box
    rt_alloc_box
        0x080017a8:    e8501f00    P...    LDREX    r1,[r0]
        0x080017ac:    b131        1.      CBZ      r1,0x80017bc ; rt_alloc_box + 20
        0x080017ae:    680b        .h      LDR      r3,[r1,#0]
        0x080017b0:    e8403200    @..2    STREX    r2,r3,[r0]
        0x080017b4:    2a00        .*      CMP      r2,#0
        0x080017b6:    d1f7        ..      BNE      rt_alloc_box ; 0x80017a8
        0x080017b8:    4608        .F      MOV      r0,r1
        0x080017ba:    4770        pG      BX       lr
        0x080017bc:    f3bf8f2f    ../.    CLREX    
        0x080017c0:    e7fa        ..      B        0x80017b8 ; rt_alloc_box + 16
    i.rt_alloc_mem
    rt_alloc_mem
        0x080017c2:    b510        ..      PUSH     {r4,lr}
        0x080017c4:    b168        h.      CBZ      r0,0x80017e2 ; rt_alloc_mem + 32
        0x080017c6:    b161        a.      CBZ      r1,0x80017e2 ; rt_alloc_mem + 32
        0x080017c8:    310b        .1      ADDS     r1,r1,#0xb
        0x080017ca:    f0210203    !...    BIC      r2,r1,#3
        0x080017ce:    6801        .h      LDR      r1,[r0,#0]
        0x080017d0:    6844        Dh      LDR      r4,[r0,#4]
        0x080017d2:    1a0b        ..      SUBS     r3,r1,r0
        0x080017d4:    1b1b        ..      SUBS     r3,r3,r4
        0x080017d6:    4293        .B      CMP      r3,r2
        0x080017d8:    d205        ..      BCS      0x80017e6 ; rt_alloc_mem + 36
        0x080017da:    4608        .F      MOV      r0,r1
        0x080017dc:    6809        .h      LDR      r1,[r1,#0]
        0x080017de:    2900        .)      CMP      r1,#0
        0x080017e0:    d1f5        ..      BNE      0x80017ce ; rt_alloc_mem + 12
        0x080017e2:    2000        .       MOVS     r0,#0
        0x080017e4:    bd10        ..      POP      {r4,pc}
        0x080017e6:    0021        !.      MOVS     r1,r4
        0x080017e8:    d007        ..      BEQ      0x80017fa ; rt_alloc_mem + 56
        0x080017ea:    1821        !.      ADDS     r1,r4,r0
        0x080017ec:    6803        .h      LDR      r3,[r0,#0]
        0x080017ee:    e9c13200    ...2    STRD     r3,r2,[r1,#0]
        0x080017f2:    6001        .`      STR      r1,[r0,#0]
        0x080017f4:    f1010008    ....    ADD      r0,r1,#8
        0x080017f8:    bd10        ..      POP      {r4,pc}
        0x080017fa:    6042        B`      STR      r2,[r0,#4]
        0x080017fc:    3008        .0      ADDS     r0,r0,#8
        0x080017fe:    bd10        ..      POP      {r4,pc}
    i.rt_block
    rt_block
        0x08001800:    b570        p.      PUSH     {r4-r6,lr}
        0x08001802:    460d        .F      MOV      r5,r1
        0x08001804:    2800        .(      CMP      r0,#0
        0x08001806:    d012        ..      BEQ      0x800182e ; rt_block + 46
        0x08001808:    f64f71ff    O..q    MOV      r1,#0xffff
        0x0800180c:    4c08        .L      LDR      r4,[pc,#32] ; [0x8001830] = 0x200000b4
        0x0800180e:    4288        .B      CMP      r0,r1
        0x08001810:    d204        ..      BCS      0x800181c ; rt_block + 28
        0x08001812:    6822        "h      LDR      r2,[r4,#0]
        0x08001814:    4601        .F      MOV      r1,r0
        0x08001816:    4610        .F      MOV      r0,r2
        0x08001818:    f000fb42    ..B.    BL       rt_put_dly ; 0x8001ea0
        0x0800181c:    6820         h      LDR      r0,[r4,#0]
        0x0800181e:    7045        Ep      STRB     r5,[r0,#1]
        0x08001820:    4804        .H      LDR      r0,[pc,#16] ; [0x8001834] = 0x20003d58
        0x08001822:    f000f8dd    ....    BL       rt_get_first ; 0x80019e0
        0x08001826:    e8bd4070    ..p@    POP      {r4-r6,lr}
        0x0800182a:    f000bbfd    ....    B.W      rt_switch_req ; 0x8002028
        0x0800182e:    bd70        p.      POP      {r4-r6,pc}
    $d
        0x08001830:    200000b4    ...     DCD    536871092
        0x08001834:    20003d58    X=.     DCD    536886616
    $t
    i.rt_chk_robin
    rt_chk_robin
        0x08001838:    480f        .H      LDR      r0,[pc,#60] ; [0x8001878] = 0x20003d58
        0x0800183a:    b510        ..      PUSH     {r4,lr}
        0x0800183c:    490d        .I      LDR      r1,[pc,#52] ; [0x8001874] = 0x200000cc
        0x0800183e:    6842        Bh      LDR      r2,[r0,#4]
        0x08001840:    480e        .H      LDR      r0,[pc,#56] ; [0x800187c] = 0x200000c4
        0x08001842:    680b        .h      LDR      r3,[r1,#0]
        0x08001844:    6800        .h      LDR      r0,[r0,#0]
        0x08001846:    4293        .B      CMP      r3,r2
        0x08001848:    d004        ..      BEQ      0x8001854 ; rt_chk_robin + 28
        0x0800184a:    600a        .`      STR      r2,[r1,#0]
        0x0800184c:    88cb        ..      LDRH     r3,[r1,#6]
        0x0800184e:    1e42        B.      SUBS     r2,r0,#1
        0x08001850:    441a        .D      ADD      r2,r2,r3
        0x08001852:    808a        ..      STRH     r2,[r1,#4]
        0x08001854:    888a        ..      LDRH     r2,[r1,#4]
        0x08001856:    b280        ..      UXTH     r0,r0
        0x08001858:    4282        .B      CMP      r2,r0
        0x0800185a:    d10a        ..      BNE      0x8001872 ; rt_chk_robin + 58
        0x0800185c:    2000        .       MOVS     r0,#0
        0x0800185e:    6008        .`      STR      r0,[r1,#0]
        0x08001860:    4805        .H      LDR      r0,[pc,#20] ; [0x8001878] = 0x20003d58
        0x08001862:    f000f8bd    ....    BL       rt_get_first ; 0x80019e0
        0x08001866:    4601        .F      MOV      r1,r0
        0x08001868:    e8bd4010    ...@    POP      {r4,lr}
        0x0800186c:    4802        .H      LDR      r0,[pc,#8] ; [0x8001878] = 0x20003d58
        0x0800186e:    f000bb3b    ..;.    B.W      rt_put_prio ; 0x8001ee8
        0x08001872:    bd10        ..      POP      {r4,pc}
    $d
        0x08001874:    200000cc    ...     DCD    536871116
        0x08001878:    20003d58    X=.     DCD    536886616
        0x0800187c:    200000c4    ...     DCD    536871108
    $t
    i.rt_clr_box
    rt_clr_box
        0x08001880:    2900        .)      CMP      r1,#0
        0x08001882:    d006        ..      BEQ      0x8001892 ; rt_clr_box + 18
        0x08001884:    6880        .h      LDR      r0,[r0,#8]
        0x08001886:    2800        .(      CMP      r0,#0
        0x08001888:    d003        ..      BEQ      0x8001892 ; rt_clr_box + 18
        0x0800188a:    2200        ."      MOVS     r2,#0
        0x0800188c:    c104        ..      STM      r1!,{r2}
        0x0800188e:    1f00        ..      SUBS     r0,r0,#4
        0x08001890:    d1fc        ..      BNE      0x800188c ; rt_clr_box + 12
        0x08001892:    4770        pG      BX       lr
    i.rt_dec_dly
    rt_dec_dly
        0x08001894:    b570        p.      PUSH     {r4-r6,lr}
        0x08001896:    4d19        .M      LDR      r5,[pc,#100] ; [0x80018fc] = 0x20003d70
        0x08001898:    68e8        .h      LDR      r0,[r5,#0xc]
        0x0800189a:    2800        .(      CMP      r0,#0
        0x0800189c:    d02c        ,.      BEQ      0x80018f8 ; rt_dec_dly + 100
        0x0800189e:    8aa8        ..      LDRH     r0,[r5,#0x14]
        0x080018a0:    1e40        @.      SUBS     r0,r0,#1
        0x080018a2:    82a8        ..      STRH     r0,[r5,#0x14]
        0x080018a4:    2600        .&      MOVS     r6,#0
        0x080018a6:    e021        !.      B        0x80018ec ; rt_dec_dly + 88
        0x080018a8:    68a0        .h      LDR      r0,[r4,#8]
        0x080018aa:    b138        8.      CBZ      r0,0x80018bc ; rt_dec_dly + 40
        0x080018ac:    6861        ah      LDR      r1,[r4,#4]
        0x080018ae:    6041        A`      STR      r1,[r0,#4]
        0x080018b0:    6860        `h      LDR      r0,[r4,#4]
        0x080018b2:    b110        ..      CBZ      r0,0x80018ba ; rt_dec_dly + 38
        0x080018b4:    68a1        .h      LDR      r1,[r4,#8]
        0x080018b6:    6081        .`      STR      r1,[r0,#8]
        0x080018b8:    6066        f`      STR      r6,[r4,#4]
        0x080018ba:    60a6        .`      STR      r6,[r4,#8]
        0x080018bc:    480f        .H      LDR      r0,[pc,#60] ; [0x80018fc] = 0x20003d70
        0x080018be:    4621        !F      MOV      r1,r4
        0x080018c0:    3818        .8      SUBS     r0,r0,#0x18
        0x080018c2:    f000fb11    ....    BL       rt_put_prio ; 0x8001ee8
        0x080018c6:    8aa0        ..      LDRH     r0,[r4,#0x14]
        0x080018c8:    82a8        ..      STRH     r0,[r5,#0x14]
        0x080018ca:    7860        `x      LDRB     r0,[r4,#1]
        0x080018cc:    2804        .(      CMP      r0,#4
        0x080018ce:    d104        ..      BNE      0x80018da ; rt_dec_dly + 70
        0x080018d0:    490b        .I      LDR      r1,[pc,#44] ; [0x8001900] = 0x200000c4
        0x080018d2:    8ae0        ..      LDRH     r0,[r4,#0x16]
        0x080018d4:    8809        ..      LDRH     r1,[r1,#0]
        0x080018d6:    4408        .D      ADD      r0,r0,r1
        0x080018d8:    82a0        ..      STRH     r0,[r4,#0x14]
        0x080018da:    2001        .       MOVS     r0,#1
        0x080018dc:    7060        `p      STRB     r0,[r4,#1]
        0x080018de:    68e0        .h      LDR      r0,[r4,#0xc]
        0x080018e0:    60e8        .`      STR      r0,[r5,#0xc]
        0x080018e2:    68e0        .h      LDR      r0,[r4,#0xc]
        0x080018e4:    b108        ..      CBZ      r0,0x80018ea ; rt_dec_dly + 86
        0x080018e6:    6105        .a      STR      r5,[r0,#0x10]
        0x080018e8:    60e6        .`      STR      r6,[r4,#0xc]
        0x080018ea:    6126        &a      STR      r6,[r4,#0x10]
        0x080018ec:    8aa8        ..      LDRH     r0,[r5,#0x14]
        0x080018ee:    2800        .(      CMP      r0,#0
        0x080018f0:    d102        ..      BNE      0x80018f8 ; rt_dec_dly + 100
        0x080018f2:    68ec        .h      LDR      r4,[r5,#0xc]
        0x080018f4:    2c00        .,      CMP      r4,#0
        0x080018f6:    d1d7        ..      BNE      0x80018a8 ; rt_dec_dly + 20
        0x080018f8:    bd70        p.      POP      {r4-r6,pc}
    $d
        0x080018fa:    0000        ..      DCW    0
        0x080018fc:    20003d70    p=.     DCD    536886640
        0x08001900:    200000c4    ...     DCD    536871108
    $t
    i.rt_dispatch
    rt_dispatch
        0x08001904:    b570        p.      PUSH     {r4-r6,lr}
        0x08001906:    0004        ..      MOVS     r4,r0
        0x08001908:    d00f        ..      BEQ      0x800192a ; rt_dispatch + 38
        0x0800190a:    4d0d        .M      LDR      r5,[pc,#52] ; [0x8001940] = 0x200000b4
        0x0800190c:    78a1        .x      LDRB     r1,[r4,#2]
        0x0800190e:    2601        .&      MOVS     r6,#1
        0x08001910:    6828        (h      LDR      r0,[r5,#0]
        0x08001912:    7882        .x      LDRB     r2,[r0,#2]
        0x08001914:    4291        .B      CMP      r1,r2
        0x08001916:    d90c        ..      BLS      0x8001932 ; rt_dispatch + 46
        0x08001918:    f000fb02    ....    BL       rt_put_rdy_first ; 0x8001f20
        0x0800191c:    6828        (h      LDR      r0,[r5,#0]
        0x0800191e:    7046        Fp      STRB     r6,[r0,#1]
        0x08001920:    4620         F      MOV      r0,r4
        0x08001922:    e8bd4070    ..p@    POP      {r4-r6,lr}
        0x08001926:    f000bb7f    ....    B.W      rt_switch_req ; 0x8002028
        0x0800192a:    4806        .H      LDR      r0,[pc,#24] ; [0x8001944] = 0x20003d58
        0x0800192c:    f000f858    ..X.    BL       rt_get_first ; 0x80019e0
        0x08001930:    e7f7        ..      B        0x8001922 ; rt_dispatch + 30
        0x08001932:    7066        fp      STRB     r6,[r4,#1]
        0x08001934:    4621        !F      MOV      r1,r4
        0x08001936:    e8bd4070    ..p@    POP      {r4-r6,lr}
        0x0800193a:    4802        .H      LDR      r0,[pc,#8] ; [0x8001944] = 0x20003d58
        0x0800193c:    f000bad4    ....    B.W      rt_put_prio ; 0x8001ee8
    $d
        0x08001940:    200000b4    ...     DCD    536871092
        0x08001944:    20003d58    X=.     DCD    536886616
    $t
    i.rt_evt_psh
    rt_evt_psh
        0x08001948:    b510        ..      PUSH     {r4,lr}
        0x0800194a:    4604        .F      MOV      r4,r0
        0x0800194c:    8b00        ..      LDRH     r0,[r0,#0x18]
        0x0800194e:    4308        .C      ORRS     r0,r0,r1
        0x08001950:    8320         .      STRH     r0,[r4,#0x18]
        0x08001952:    7862        bx      LDRB     r2,[r4,#1]
        0x08001954:    8b61        a.      LDRH     r1,[r4,#0x1a]
        0x08001956:    2a06        .*      CMP      r2,#6
        0x08001958:    d018        ..      BEQ      0x800198c ; rt_evt_psh + 68
        0x0800195a:    2a05        .*      CMP      r2,#5
        0x0800195c:    d119        ..      BNE      0x8001992 ; rt_evt_psh + 74
        0x0800195e:    4208        .B      TST      r0,r1
        0x08001960:    d017        ..      BEQ      0x8001992 ; rt_evt_psh + 74
        0x08001962:    ea010200    ....    AND      r2,r1,r0
        0x08001966:    8362        b.      STRH     r2,[r4,#0x1a]
        0x08001968:    4388        .C      BICS     r0,r0,r1
        0x0800196a:    8320         .      STRH     r0,[r4,#0x18]
        0x0800196c:    4620         F      MOV      r0,r4
        0x0800196e:    f000fb02    ....    BL       rt_rmv_dly ; 0x8001f76
        0x08001972:    2001        .       MOVS     r0,#1
        0x08001974:    7060        `p      STRB     r0,[r4,#1]
        0x08001976:    8b62        b.      LDRH     r2,[r4,#0x1a]
        0x08001978:    2108        .!      MOVS     r1,#8
        0x0800197a:    4620         F      MOV      r0,r4
        0x0800197c:    f000faf7    ....    BL       rt_ret_val2 ; 0x8001f6e
        0x08001980:    4621        !F      MOV      r1,r4
        0x08001982:    e8bd4010    ...@    POP      {r4,lr}
        0x08001986:    4803        .H      LDR      r0,[pc,#12] ; [0x8001994] = 0x20003d58
        0x08001988:    f000baae    ....    B.W      rt_put_prio ; 0x8001ee8
        0x0800198c:    ea310200    1...    BICS     r2,r1,r0
        0x08001990:    d0ea        ..      BEQ      0x8001968 ; rt_evt_psh + 32
        0x08001992:    bd10        ..      POP      {r4,pc}
    $d
        0x08001994:    20003d58    X=.     DCD    536886616
    $t
    i.rt_free_box
    rt_free_box
        0x08001998:    4281        .B      CMP      r1,r0
        0x0800199a:    d302        ..      BCC      0x80019a2 ; rt_free_box + 10
        0x0800199c:    6842        Bh      LDR      r2,[r0,#4]
        0x0800199e:    428a        .B      CMP      r2,r1
        0x080019a0:    d801        ..      BHI      0x80019a6 ; rt_free_box + 14
        0x080019a2:    2001        .       MOVS     r0,#1
        0x080019a4:    4770        pG      BX       lr
        0x080019a6:    e8502f00    P../    LDREX    r2,[r0]
        0x080019aa:    600a        .`      STR      r2,[r1,#0]
        0x080019ac:    e8401200    @...    STREX    r2,r1,[r0]
        0x080019b0:    2a00        .*      CMP      r2,#0
        0x080019b2:    d1f8        ..      BNE      0x80019a6 ; rt_free_box + 14
        0x080019b4:    2000        .       MOVS     r0,#0
        0x080019b6:    4770        pG      BX       lr
    i.rt_free_mem
    rt_free_mem
        0x080019b8:    b168        h.      CBZ      r0,0x80019d6 ; rt_free_mem + 30
        0x080019ba:    b161        a.      CBZ      r1,0x80019d6 ; rt_free_mem + 30
        0x080019bc:    2200        ."      MOVS     r2,#0
        0x080019be:    3908        .9      SUBS     r1,r1,#8
        0x080019c0:    e002        ..      B        0x80019c8 ; rt_free_mem + 16
        0x080019c2:    4602        .F      MOV      r2,r0
        0x080019c4:    6800        .h      LDR      r0,[r0,#0]
        0x080019c6:    b130        0.      CBZ      r0,0x80019d6 ; rt_free_mem + 30
        0x080019c8:    4288        .B      CMP      r0,r1
        0x080019ca:    d1fa        ..      BNE      0x80019c2 ; rt_free_mem + 10
        0x080019cc:    b12a        *.      CBZ      r2,0x80019da ; rt_free_mem + 34
        0x080019ce:    6800        .h      LDR      r0,[r0,#0]
        0x080019d0:    6010        .`      STR      r0,[r2,#0]
        0x080019d2:    2000        .       MOVS     r0,#0
        0x080019d4:    4770        pG      BX       lr
        0x080019d6:    2001        .       MOVS     r0,#1
        0x080019d8:    4770        pG      BX       lr
        0x080019da:    2100        .!      MOVS     r1,#0
        0x080019dc:    6041        A`      STR      r1,[r0,#4]
        0x080019de:    e7f8        ..      B        0x80019d2 ; rt_free_mem + 26
    i.rt_get_first
    rt_get_first
        0x080019e0:    4601        .F      MOV      r1,r0
        0x080019e2:    6840        @h      LDR      r0,[r0,#4]
        0x080019e4:    6842        Bh      LDR      r2,[r0,#4]
        0x080019e6:    604a        J`      STR      r2,[r1,#4]
        0x080019e8:    780b        .x      LDRB     r3,[r1,#0]
        0x080019ea:    2200        ."      MOVS     r2,#0
        0x080019ec:    2b02        .+      CMP      r3,#2
        0x080019ee:    d005        ..      BEQ      0x80019fc ; rt_get_first + 28
        0x080019f0:    2b01        .+      CMP      r3,#1
        0x080019f2:    d003        ..      BEQ      0x80019fc ; rt_get_first + 28
        0x080019f4:    2b03        .+      CMP      r3,#3
        0x080019f6:    d001        ..      BEQ      0x80019fc ; rt_get_first + 28
        0x080019f8:    6042        B`      STR      r2,[r0,#4]
        0x080019fa:    4770        pG      BX       lr
        0x080019fc:    6843        Ch      LDR      r3,[r0,#4]
        0x080019fe:    b10b        ..      CBZ      r3,0x8001a04 ; rt_get_first + 36
        0x08001a00:    6099        .`      STR      r1,[r3,#8]
        0x08001a02:    6042        B`      STR      r2,[r0,#4]
        0x08001a04:    6082        .`      STR      r2,[r0,#8]
        0x08001a06:    4770        pG      BX       lr
    i.rt_id2obj
    rt_id2obj
        0x08001a08:    0781        ..      LSLS     r1,r0,#30
        0x08001a0a:    d000        ..      BEQ      0x8001a0e ; rt_id2obj + 6
        0x08001a0c:    2000        .       MOVS     r0,#0
        0x08001a0e:    4770        pG      BX       lr
    i.rt_init_context
    rt_init_context
        0x08001a10:    b570        p.      PUSH     {r4-r6,lr}
        0x08001a12:    4604        .F      MOV      r4,r0
        0x08001a14:    2000        .       MOVS     r0,#0
        0x08001a16:    4615        .F      MOV      r5,r2
        0x08001a18:    7020         p      STRB     r0,[r4,#0]
        0x08001a1a:    2201        ."      MOVS     r2,#1
        0x08001a1c:    7062        bp      STRB     r2,[r4,#1]
        0x08001a1e:    70a1        .p      STRB     r1,[r4,#2]
        0x08001a20:    f8841024    ..$.    STRB     r1,[r4,#0x24]
        0x08001a24:    6060        ``      STR      r0,[r4,#4]
        0x08001a26:    60a0        .`      STR      r0,[r4,#8]
        0x08001a28:    60e0        .`      STR      r0,[r4,#0xc]
        0x08001a2a:    6120         a      STR      r0,[r4,#0x10]
        0x08001a2c:    6220         b      STR      r0,[r4,#0x20]
        0x08001a2e:    82a0        ..      STRH     r0,[r4,#0x14]
        0x08001a30:    82e0        ..      STRH     r0,[r4,#0x16]
        0x08001a32:    8320         .      STRH     r0,[r4,#0x18]
        0x08001a34:    8360        `.      STRH     r0,[r4,#0x1a]
        0x08001a36:    f8840025    ..%.    STRB     r0,[r4,#0x25]
        0x08001a3a:    8ce0        ..      LDRH     r0,[r4,#0x26]
        0x08001a3c:    b918        ..      CBNZ     r0,0x8001a46 ; rt_init_context + 54
        0x08001a3e:    4805        .H      LDR      r0,[pc,#20] ; [0x8001a54] = 0x20000370
        0x08001a40:    f7fffeb2    ....    BL       rt_alloc_box ; 0x80017a8
        0x08001a44:    62e0        .b      STR      r0,[r4,#0x2c]
        0x08001a46:    4629        )F      MOV      r1,r5
        0x08001a48:    4620         F      MOV      r0,r4
        0x08001a4a:    e8bd4070    ..p@    POP      {r4-r6,lr}
        0x08001a4e:    f000b81d    ....    B.W      rt_init_stack ; 0x8001a8c
    $d
        0x08001a52:    0000        ..      DCW    0
        0x08001a54:    20000370    p..     DCD    536871792
    $t
    i.rt_init_mem
    rt_init_mem
        0x08001a58:    b108        ..      CBZ      r0,0x8001a5e ; rt_init_mem + 6
        0x08001a5a:    2908        .)      CMP      r1,#8
        0x08001a5c:    d201        ..      BCS      0x8001a62 ; rt_init_mem + 10
        0x08001a5e:    2001        .       MOVS     r0,#1
        0x08001a60:    4770        pG      BX       lr
        0x08001a62:    4401        .D      ADD      r1,r1,r0
        0x08001a64:    1f09        ..      SUBS     r1,r1,#4
        0x08001a66:    2200        ."      MOVS     r2,#0
        0x08001a68:    6001        .`      STR      r1,[r0,#0]
        0x08001a6a:    600a        .`      STR      r2,[r1,#0]
        0x08001a6c:    6042        B`      STR      r2,[r0,#4]
        0x08001a6e:    4610        .F      MOV      r0,r2
        0x08001a70:    4770        pG      BX       lr
        0x08001a72:    0000        ..      MOVS     r0,r0
    i.rt_init_robin
    rt_init_robin
        0x08001a74:    4803        .H      LDR      r0,[pc,#12] ; [0x8001a84] = 0x200000cc
        0x08001a76:    2100        .!      MOVS     r1,#0
        0x08001a78:    6001        .`      STR      r1,[r0,#0]
        0x08001a7a:    4903        .I      LDR      r1,[pc,#12] ; [0x8001a88] = 0x8002b18
        0x08001a7c:    8809        ..      LDRH     r1,[r1,#0]
        0x08001a7e:    80c1        ..      STRH     r1,[r0,#6]
        0x08001a80:    4770        pG      BX       lr
    $d
        0x08001a82:    0000        ..      DCW    0
        0x08001a84:    200000cc    ...     DCD    536871116
        0x08001a88:    08002b18    .+..    DCD    134228760
    $t
    i.rt_init_stack
    rt_init_stack
        0x08001a8c:    b570        p.      PUSH     {r4-r6,lr}
        0x08001a8e:    8cc2        ..      LDRH     r2,[r0,#0x26]
        0x08001a90:    4d1c        .M      LDR      r5,[pc,#112] ; [0x8001b04] = 0x8002b14
        0x08001a92:    0893        ..      LSRS     r3,r2,#2
        0x08001a94:    d102        ..      BNE      0x8001a9c ; rt_init_stack + 16
        0x08001a96:    882a        *.      LDRH     r2,[r5,#0]
        0x08001a98:    f3c2038d    ....    UBFX     r3,r2,#2,#14
        0x08001a9c:    6ac2        .j      LDR      r2,[r0,#0x2c]
        0x08001a9e:    eb020283    ....    ADD      r2,r2,r3,LSL #2
        0x08001aa2:    0754        T.      LSLS     r4,r2,#29
        0x08001aa4:    d500        ..      BPL      0x8001aa8 ; rt_init_stack + 28
        0x08001aa6:    1f12        ..      SUBS     r2,r2,#4
        0x08001aa8:    f04f7480    O..t    MOV      r4,#0x1000000
        0x08001aac:    e9421402    B...    STRD     r1,r4,[r2,#-8]
        0x08001ab0:    2400        .$      MOVS     r4,#0
        0x08001ab2:    4626        &F      MOV      r6,r4
        0x08001ab4:    f1b20240    ..@.    SUBS.W   r2,r2,#0x40
        0x08001ab8:    f8426024    B.$`    STR      r6,[r2,r4,LSL #2]
        0x08001abc:    1c64        d.      ADDS     r4,r4,#1
        0x08001abe:    2c0e        .,      CMP      r4,#0xe
        0x08001ac0:    d3fa        ..      BCC      0x8001ab8 ; rt_init_stack + 44
        0x08001ac2:    69c4        .i      LDR      r4,[r0,#0x1c]
        0x08001ac4:    6214        .b      STR      r4,[r2,#0x20]
        0x08001ac6:    6282        .b      STR      r2,[r0,#0x28]
        0x08001ac8:    6301        .c      STR      r1,[r0,#0x30]
        0x08001aca:    6829        )h      LDR      r1,[r5,#0]
        0x08001acc:    00c9        ..      LSLS     r1,r1,#3
        0x08001ace:    d514        ..      BPL      0x8001afa ; rt_init_stack + 110
        0x08001ad0:    2b11        .+      CMP      r3,#0x11
        0x08001ad2:    d912        ..      BLS      0x8001afa ; rt_init_stack + 110
        0x08001ad4:    f04f31ff    O..1    MOV      r1,#0xffffffff
        0x08001ad8:    3b10        .;      SUBS     r3,r3,#0x10
        0x08001ada:    eb110153    ..S.    ADDS     r1,r1,r3,LSR #1
        0x08001ade:    f04f33cc    O..3    MOV      r3,#0xcccccccc
        0x08001ae2:    d005        ..      BEQ      0x8001af0 ; rt_init_stack + 100
        0x08001ae4:    f8423c04    B..<    STR      r3,[r2,#-4]
        0x08001ae8:    f8423d08    B..=    STR      r3,[r2,#-8]!
        0x08001aec:    1e49        I.      SUBS     r1,r1,#1
        0x08001aee:    d1f9        ..      BNE      0x8001ae4 ; rt_init_stack + 88
        0x08001af0:    6ac1        .j      LDR      r1,[r0,#0x2c]
        0x08001af2:    1f12        ..      SUBS     r2,r2,#4
        0x08001af4:    428a        .B      CMP      r2,r1
        0x08001af6:    d900        ..      BLS      0x8001afa ; rt_init_stack + 110
        0x08001af8:    6013        .`      STR      r3,[r2,#0]
        0x08001afa:    6ac0        .j      LDR      r0,[r0,#0x2c]
        0x08001afc:    4902        .I      LDR      r1,[pc,#8] ; [0x8001b08] = 0xe25a2ea5
        0x08001afe:    6001        .`      STR      r1,[r0,#0]
        0x08001b00:    bd70        p.      POP      {r4-r6,pc}
    $d
        0x08001b02:    0000        ..      DCW    0
        0x08001b04:    08002b14    .+..    DCD    134228756
        0x08001b08:    e25a2ea5    ..Z.    DCD    3797560997
    $t
    i.rt_mbx_check
    rt_mbx_check
        0x08001b0c:    89c1        ..      LDRH     r1,[r0,#0xe]
        0x08001b0e:    8980        ..      LDRH     r0,[r0,#0xc]
        0x08001b10:    1a08        ..      SUBS     r0,r1,r0
        0x08001b12:    4770        pG      BX       lr
    i.rt_mbx_init
    rt_mbx_init
        0x08001b14:    2201        ."      MOVS     r2,#1
        0x08001b16:    7002        .p      STRB     r2,[r0,#0]
        0x08001b18:    2200        ."      MOVS     r2,#0
        0x08001b1a:    7042        Bp      STRB     r2,[r0,#1]
        0x08001b1c:    7082        .p      STRB     r2,[r0,#2]
        0x08001b1e:    6042        B`      STR      r2,[r0,#4]
        0x08001b20:    8102        ..      STRH     r2,[r0,#8]
        0x08001b22:    8142        B.      STRH     r2,[r0,#0xa]
        0x08001b24:    3910        .9      SUBS     r1,r1,#0x10
        0x08001b26:    8182        ..      STRH     r2,[r0,#0xc]
        0x08001b28:    0889        ..      LSRS     r1,r1,#2
        0x08001b2a:    81c1        ..      STRH     r1,[r0,#0xe]
        0x08001b2c:    4770        pG      BX       lr
        0x08001b2e:    0000        ..      MOVS     r0,r0
    i.rt_mbx_psh
    rt_mbx_psh
        0x08001b30:    e92d41f0    -..A    PUSH     {r4-r8,lr}
        0x08001b34:    4604        .F      MOV      r4,r0
        0x08001b36:    6840        @h      LDR      r0,[r0,#4]
        0x08001b38:    460e        .F      MOV      r6,r1
        0x08001b3a:    f04f0800    O...    MOV      r8,#0
        0x08001b3e:    f104050c    ....    ADD      r5,r4,#0xc
        0x08001b42:    b3e8        ..      CBZ      r0,0x8001bc0 ; rt_mbx_psh + 144
        0x08001b44:    7860        `x      LDRB     r0,[r4,#1]
        0x08001b46:    2701        .'      MOVS     r7,#1
        0x08001b48:    2801        .(      CMP      r0,#1
        0x08001b4a:    d03e        >.      BEQ      0x8001bca ; rt_mbx_psh + 154
        0x08001b4c:    2802        .(      CMP      r0,#2
        0x08001b4e:    d013        ..      BEQ      0x8001b78 ; rt_mbx_psh + 72
        0x08001b50:    2803        .(      CMP      r0,#3
        0x08001b52:    d15c        \.      BNE      0x8001c0e ; rt_mbx_psh + 222
        0x08001b54:    4608        .F      MOV      r0,r1
        0x08001b56:    f7fffe27    ..'.    BL       rt_alloc_box ; 0x80017a8
        0x08001b5a:    0005        ..      MOVS     r5,r0
        0x08001b5c:    d057        W.      BEQ      0x8001c0e ; rt_mbx_psh + 222
        0x08001b5e:    4620         F      MOV      r0,r4
        0x08001b60:    f7ffff3e    ..>.    BL       rt_get_first ; 0x80019e0
        0x08001b64:    4604        .F      MOV      r4,r0
        0x08001b66:    4629        )F      MOV      r1,r5
        0x08001b68:    f000f9fe    ....    BL       rt_ret_val ; 0x8001f68
        0x08001b6c:    7067        gp      STRB     r7,[r4,#1]
        0x08001b6e:    4620         F      MOV      r0,r4
        0x08001b70:    f000fa01    ....    BL       rt_rmv_dly ; 0x8001f76
        0x08001b74:    4621        !F      MOV      r1,r4
        0x08001b76:    e021        !.      B        0x8001bbc ; rt_mbx_psh + 140
        0x08001b78:    4620         F      MOV      r0,r4
        0x08001b7a:    f7ffff31    ..1.    BL       rt_get_first ; 0x80019e0
        0x08001b7e:    4606        .F      MOV      r6,r0
        0x08001b80:    2100        .!      MOVS     r1,#0
        0x08001b82:    f000f9f1    ....    BL       rt_ret_val ; 0x8001f68
        0x08001b86:    8921        !.      LDRH     r1,[r4,#8]
        0x08001b88:    69f0        .i      LDR      r0,[r6,#0x1c]
        0x08001b8a:    eb040181    ....    ADD      r1,r4,r1,LSL #2
        0x08001b8e:    6108        .a      STR      r0,[r1,#0x10]
        0x08001b90:    e8d50f5f    .._.    LDREXH   r0,[r5]
        0x08001b94:    1c40        @.      ADDS     r0,r0,#1
        0x08001b96:    b281        ..      UXTH     r1,r0
        0x08001b98:    e8c51f50    ..P.    STREXH   r0,r1,[r5]
        0x08001b9c:    2800        .(      CMP      r0,#0
        0x08001b9e:    d1f7        ..      BNE      0x8001b90 ; rt_mbx_psh + 96
        0x08001ba0:    8920         .      LDRH     r0,[r4,#8]
        0x08001ba2:    1c40        @.      ADDS     r0,r0,#1
        0x08001ba4:    b280        ..      UXTH     r0,r0
        0x08001ba6:    8120         .      STRH     r0,[r4,#8]
        0x08001ba8:    89e1        ..      LDRH     r1,[r4,#0xe]
        0x08001baa:    4288        .B      CMP      r0,r1
        0x08001bac:    d101        ..      BNE      0x8001bb2 ; rt_mbx_psh + 130
        0x08001bae:    f8a48008    ....    STRH     r8,[r4,#8]
        0x08001bb2:    7077        wp      STRB     r7,[r6,#1]
        0x08001bb4:    4630        0F      MOV      r0,r6
        0x08001bb6:    f000f9de    ....    BL       rt_rmv_dly ; 0x8001f76
        0x08001bba:    4631        1F      MOV      r1,r6
        0x08001bbc:    4817        .H      LDR      r0,[pc,#92] ; [0x8001c1c] = 0x20003d58
        0x08001bbe:    e000        ..      B        0x8001bc2 ; rt_mbx_psh + 146
        0x08001bc0:    e00c        ..      B        0x8001bdc ; rt_mbx_psh + 172
        0x08001bc2:    e8bd41f0    ...A    POP      {r4-r8,lr}
        0x08001bc6:    f000b98f    ....    B.W      rt_put_prio ; 0x8001ee8
        0x08001bca:    4620         F      MOV      r0,r4
        0x08001bcc:    f7ffff08    ....    BL       rt_get_first ; 0x80019e0
        0x08001bd0:    4604        .F      MOV      r4,r0
        0x08001bd2:    4632        2F      MOV      r2,r6
        0x08001bd4:    2110        .!      MOVS     r1,#0x10
        0x08001bd6:    f000f9ca    ....    BL       rt_ret_val2 ; 0x8001f6e
        0x08001bda:    e7c7        ..      B        0x8001b6c ; rt_mbx_psh + 60
        0x08001bdc:    89a0        ..      LDRH     r0,[r4,#0xc]
        0x08001bde:    89e1        ..      LDRH     r1,[r4,#0xe]
        0x08001be0:    4288        .B      CMP      r0,r1
        0x08001be2:    d216        ..      BCS      0x8001c12 ; rt_mbx_psh + 226
        0x08001be4:    8920         .      LDRH     r0,[r4,#8]
        0x08001be6:    eb040080    ....    ADD      r0,r4,r0,LSL #2
        0x08001bea:    6106        .a      STR      r6,[r0,#0x10]
        0x08001bec:    e8d50f5f    .._.    LDREXH   r0,[r5]
        0x08001bf0:    1c40        @.      ADDS     r0,r0,#1
        0x08001bf2:    b281        ..      UXTH     r1,r0
        0x08001bf4:    e8c51f50    ..P.    STREXH   r0,r1,[r5]
        0x08001bf8:    2800        .(      CMP      r0,#0
        0x08001bfa:    d1f7        ..      BNE      0x8001bec ; rt_mbx_psh + 188
        0x08001bfc:    8920         .      LDRH     r0,[r4,#8]
        0x08001bfe:    1c40        @.      ADDS     r0,r0,#1
        0x08001c00:    b280        ..      UXTH     r0,r0
        0x08001c02:    8120         .      STRH     r0,[r4,#8]
        0x08001c04:    89e1        ..      LDRH     r1,[r4,#0xe]
        0x08001c06:    4288        .B      CMP      r0,r1
        0x08001c08:    d101        ..      BNE      0x8001c0e ; rt_mbx_psh + 222
        0x08001c0a:    f8a48008    ....    STRH     r8,[r4,#8]
        0x08001c0e:    e8bd81f0    ....    POP      {r4-r8,pc}
        0x08001c12:    e8bd41f0    ...A    POP      {r4-r8,lr}
        0x08001c16:    2003        .       MOVS     r0,#3
        0x08001c18:    f7ffbd54    ..T.    B.W      os_error ; 0x80016c4
    $d
        0x08001c1c:    20003d58    X=.     DCD    536886616
    $t
    i.rt_mbx_send
    rt_mbx_send
        0x08001c20:    b570        p.      PUSH     {r4-r6,lr}
        0x08001c22:    4616        .F      MOV      r6,r2
        0x08001c24:    6842        Bh      LDR      r2,[r0,#4]
        0x08001c26:    460d        .F      MOV      r5,r1
        0x08001c28:    b112        ..      CBZ      r2,0x8001c30 ; rt_mbx_send + 16
        0x08001c2a:    7841        Ax      LDRB     r1,[r0,#1]
        0x08001c2c:    2901        .)      CMP      r1,#1
        0x08001c2e:    d00b        ..      BEQ      0x8001c48 ; rt_mbx_send + 40
        0x08001c30:    8981        ..      LDRH     r1,[r0,#0xc]
        0x08001c32:    89c4        ..      LDRH     r4,[r0,#0xe]
        0x08001c34:    2300        .#      MOVS     r3,#0
        0x08001c36:    42a1        .B      CMP      r1,r4
        0x08001c38:    d124        $.      BNE      0x8001c84 ; rt_mbx_send + 100
        0x08001c3a:    b19e        ..      CBZ      r6,0x8001c64 ; rt_mbx_send + 68
        0x08001c3c:    4c1d        .L      LDR      r4,[pc,#116] ; [0x8001cb4] = 0x200000b4
        0x08001c3e:    6821        !h      LDR      r1,[r4,#0]
        0x08001c40:    b192        ..      CBZ      r2,0x8001c68 ; rt_mbx_send + 72
        0x08001c42:    f000f951    ..Q.    BL       rt_put_prio ; 0x8001ee8
        0x08001c46:    e016        ..      B        0x8001c76 ; rt_mbx_send + 86
        0x08001c48:    f7fffeca    ....    BL       rt_get_first ; 0x80019e0
        0x08001c4c:    4604        .F      MOV      r4,r0
        0x08001c4e:    462a        *F      MOV      r2,r5
        0x08001c50:    2110        .!      MOVS     r1,#0x10
        0x08001c52:    f000f98c    ....    BL       rt_ret_val2 ; 0x8001f6e
        0x08001c56:    4620         F      MOV      r0,r4
        0x08001c58:    f000f98d    ....    BL       rt_rmv_dly ; 0x8001f76
        0x08001c5c:    4620         F      MOV      r0,r4
        0x08001c5e:    f7fffe51    ..Q.    BL       rt_dispatch ; 0x8001904
        0x08001c62:    e025        %.      B        0x8001cb0 ; rt_mbx_send + 144
        0x08001c64:    2001        .       MOVS     r0,#1
        0x08001c66:    bd70        p.      POP      {r4-r6,pc}
        0x08001c68:    6041        A`      STR      r1,[r0,#4]
        0x08001c6a:    6821        !h      LDR      r1,[r4,#0]
        0x08001c6c:    604b        K`      STR      r3,[r1,#4]
        0x08001c6e:    6821        !h      LDR      r1,[r4,#0]
        0x08001c70:    6088        .`      STR      r0,[r1,#8]
        0x08001c72:    2102        .!      MOVS     r1,#2
        0x08001c74:    7041        Ap      STRB     r1,[r0,#1]
        0x08001c76:    6820         h      LDR      r0,[r4,#0]
        0x08001c78:    2108        .!      MOVS     r1,#8
        0x08001c7a:    61c5        .a      STR      r5,[r0,#0x1c]
        0x08001c7c:    4630        0F      MOV      r0,r6
        0x08001c7e:    f7fffdbf    ....    BL       rt_block ; 0x8001800
        0x08001c82:    e7ef        ..      B        0x8001c64 ; rt_mbx_send + 68
        0x08001c84:    8901        ..      LDRH     r1,[r0,#8]
        0x08001c86:    eb000181    ....    ADD      r1,r0,r1,LSL #2
        0x08001c8a:    610d        .a      STR      r5,[r1,#0x10]
        0x08001c8c:    f100010c    ....    ADD      r1,r0,#0xc
        0x08001c90:    e8d12f5f    .._/    LDREXH   r2,[r1]
        0x08001c94:    1c52        R.      ADDS     r2,r2,#1
        0x08001c96:    b294        ..      UXTH     r4,r2
        0x08001c98:    e8c14f52    ..RO    STREXH   r2,r4,[r1]
        0x08001c9c:    2a00        .*      CMP      r2,#0
        0x08001c9e:    d1f7        ..      BNE      0x8001c90 ; rt_mbx_send + 112
        0x08001ca0:    8901        ..      LDRH     r1,[r0,#8]
        0x08001ca2:    1c49        I.      ADDS     r1,r1,#1
        0x08001ca4:    b289        ..      UXTH     r1,r1
        0x08001ca6:    8101        ..      STRH     r1,[r0,#8]
        0x08001ca8:    89c2        ..      LDRH     r2,[r0,#0xe]
        0x08001caa:    4291        .B      CMP      r1,r2
        0x08001cac:    d100        ..      BNE      0x8001cb0 ; rt_mbx_send + 144
        0x08001cae:    8103        ..      STRH     r3,[r0,#8]
        0x08001cb0:    2000        .       MOVS     r0,#0
        0x08001cb2:    bd70        p.      POP      {r4-r6,pc}
    $d
        0x08001cb4:    200000b4    ...     DCD    536871092
    $t
    i.rt_mbx_wait
    rt_mbx_wait
        0x08001cb8:    b570        p.      PUSH     {r4-r6,lr}
        0x08001cba:    4604        .F      MOV      r4,r0
        0x08001cbc:    8980        ..      LDRH     r0,[r0,#0xc]
        0x08001cbe:    4615        .F      MOV      r5,r2
        0x08001cc0:    2600        .&      MOVS     r6,#0
        0x08001cc2:    b3c0        ..      CBZ      r0,0x8001d36 ; rt_mbx_wait + 126
        0x08001cc4:    8960        `.      LDRH     r0,[r4,#0xa]
        0x08001cc6:    eb040080    ....    ADD      r0,r4,r0,LSL #2
        0x08001cca:    6900        .i      LDR      r0,[r0,#0x10]
        0x08001ccc:    6008        .`      STR      r0,[r1,#0]
        0x08001cce:    8960        `.      LDRH     r0,[r4,#0xa]
        0x08001cd0:    1c40        @.      ADDS     r0,r0,#1
        0x08001cd2:    b280        ..      UXTH     r0,r0
        0x08001cd4:    8160        `.      STRH     r0,[r4,#0xa]
        0x08001cd6:    89e1        ..      LDRH     r1,[r4,#0xe]
        0x08001cd8:    4288        .B      CMP      r0,r1
        0x08001cda:    d100        ..      BNE      0x8001cde ; rt_mbx_wait + 38
        0x08001cdc:    8166        f.      STRH     r6,[r4,#0xa]
        0x08001cde:    6860        `h      LDR      r0,[r4,#4]
        0x08001ce0:    b110        ..      CBZ      r0,0x8001ce8 ; rt_mbx_wait + 48
        0x08001ce2:    7860        `x      LDRB     r0,[r4,#1]
        0x08001ce4:    2802        .(      CMP      r0,#2
        0x08001ce6:    d00b        ..      BEQ      0x8001d00 ; rt_mbx_wait + 72
        0x08001ce8:    f114040c    ....    ADDS.W   r4,r4,#0xc
        0x08001cec:    e8d40f5f    .._.    LDREXH   r0,[r4]
        0x08001cf0:    1e40        @.      SUBS     r0,r0,#1
        0x08001cf2:    b281        ..      UXTH     r1,r0
        0x08001cf4:    e8c41f50    ..P.    STREXH   r0,r1,[r4]
        0x08001cf8:    2800        .(      CMP      r0,#0
        0x08001cfa:    d1f7        ..      BNE      0x8001cec ; rt_mbx_wait + 52
        0x08001cfc:    2000        .       MOVS     r0,#0
        0x08001cfe:    bd70        p.      POP      {r4-r6,pc}
        0x08001d00:    4620         F      MOV      r0,r4
        0x08001d02:    f7fffe6d    ..m.    BL       rt_get_first ; 0x80019e0
        0x08001d06:    4605        .F      MOV      r5,r0
        0x08001d08:    2100        .!      MOVS     r1,#0
        0x08001d0a:    f000f92d    ..-.    BL       rt_ret_val ; 0x8001f68
        0x08001d0e:    8921        !.      LDRH     r1,[r4,#8]
        0x08001d10:    69e8        .i      LDR      r0,[r5,#0x1c]
        0x08001d12:    eb040181    ....    ADD      r1,r4,r1,LSL #2
        0x08001d16:    6108        .a      STR      r0,[r1,#0x10]
        0x08001d18:    8920         .      LDRH     r0,[r4,#8]
        0x08001d1a:    1c40        @.      ADDS     r0,r0,#1
        0x08001d1c:    b280        ..      UXTH     r0,r0
        0x08001d1e:    8120         .      STRH     r0,[r4,#8]
        0x08001d20:    89e1        ..      LDRH     r1,[r4,#0xe]
        0x08001d22:    4288        .B      CMP      r0,r1
        0x08001d24:    d100        ..      BNE      0x8001d28 ; rt_mbx_wait + 112
        0x08001d26:    8126        &.      STRH     r6,[r4,#8]
        0x08001d28:    4628        (F      MOV      r0,r5
        0x08001d2a:    f000f924    ..$.    BL       rt_rmv_dly ; 0x8001f76
        0x08001d2e:    4628        (F      MOV      r0,r5
        0x08001d30:    f7fffde8    ....    BL       rt_dispatch ; 0x8001904
        0x08001d34:    e7e2        ..      B        0x8001cfc ; rt_mbx_wait + 68
        0x08001d36:    e7ff        ..      B        0x8001d38 ; rt_mbx_wait + 128
        0x08001d38:    b13d        =.      CBZ      r5,0x8001d4a ; rt_mbx_wait + 146
        0x08001d3a:    480b        .H      LDR      r0,[pc,#44] ; [0x8001d68] = 0x200000b4
        0x08001d3c:    6862        bh      LDR      r2,[r4,#4]
        0x08001d3e:    6801        .h      LDR      r1,[r0,#0]
        0x08001d40:    b12a        *.      CBZ      r2,0x8001d4e ; rt_mbx_wait + 150
        0x08001d42:    4620         F      MOV      r0,r4
        0x08001d44:    f000f8d0    ....    BL       rt_put_prio ; 0x8001ee8
        0x08001d48:    e008        ..      B        0x8001d5c ; rt_mbx_wait + 164
        0x08001d4a:    2001        .       MOVS     r0,#1
        0x08001d4c:    bd70        p.      POP      {r4-r6,pc}
        0x08001d4e:    6061        a`      STR      r1,[r4,#4]
        0x08001d50:    6801        .h      LDR      r1,[r0,#0]
        0x08001d52:    604e        N`      STR      r6,[r1,#4]
        0x08001d54:    6800        .h      LDR      r0,[r0,#0]
        0x08001d56:    6084        .`      STR      r4,[r0,#8]
        0x08001d58:    2001        .       MOVS     r0,#1
        0x08001d5a:    7060        `p      STRB     r0,[r4,#1]
        0x08001d5c:    2108        .!      MOVS     r1,#8
        0x08001d5e:    4628        (F      MOV      r0,r5
        0x08001d60:    f7fffd4e    ..N.    BL       rt_block ; 0x8001800
        0x08001d64:    e7f1        ..      B        0x8001d4a ; rt_mbx_wait + 146
    $d
        0x08001d66:    0000        ..      DCW    0
        0x08001d68:    200000b4    ...     DCD    536871092
    $t
    i.rt_ms2tick
    rt_ms2tick
        0x08001d6c:    1c41        A.      ADDS     r1,r0,#1
        0x08001d6e:    d013        ..      BEQ      0x8001d98 ; rt_ms2tick + 44
        0x08001d70:    4a0b        .J      LDR      r2,[pc,#44] ; [0x8001da0] = 0x3d0900
        0x08001d72:    f64f71fe    O..q    MOV      r1,#0xfffe
        0x08001d76:    4290        .B      CMP      r0,r2
        0x08001d78:    d80c        ..      BHI      0x8001d94 ; rt_ms2tick + 40
        0x08001d7a:    eb000240    ..@.    ADD      r2,r0,r0,LSL #1
        0x08001d7e:    ebc212c0    ....    RSB      r2,r2,r0,LSL #7
        0x08001d82:    4808        .H      LDR      r0,[pc,#32] ; [0x8001da4] = 0x8002b34
        0x08001d84:    6803        .h      LDR      r3,[r0,#0]
        0x08001d86:    eb0302c2    ....    ADD      r2,r3,r2,LSL #3
        0x08001d8a:    1e52        R.      SUBS     r2,r2,#1
        0x08001d8c:    fbb2f0f3    ....    UDIV     r0,r2,r3
        0x08001d90:    4288        .B      CMP      r0,r1
        0x08001d92:    d900        ..      BLS      0x8001d96 ; rt_ms2tick + 42
        0x08001d94:    4608        .F      MOV      r0,r1
        0x08001d96:    4770        pG      BX       lr
        0x08001d98:    f64f70ff    O..p    MOV      r0,#0xffff
        0x08001d9c:    4770        pG      BX       lr
    $d
        0x08001d9e:    0000        ..      DCW    0
        0x08001da0:    003d0900    ..=.    DCD    4000000
        0x08001da4:    08002b34    4+..    DCD    134228788
    $t
    i.rt_pop_req
    rt_pop_req
        0x08001da8:    b570        p.      PUSH     {r4-r6,lr}
        0x08001daa:    481b        .H      LDR      r0,[pc,#108] ; [0x8001e18] = 0x200000b4
        0x08001dac:    2101        .!      MOVS     r1,#1
        0x08001dae:    6802        .h      LDR      r2,[r0,#0]
        0x08001db0:    7051        Qp      STRB     r1,[r2,#1]
        0x08001db2:    6800        .h      LDR      r0,[r0,#0]
        0x08001db4:    f000f8b4    ....    BL       rt_put_rdy_first ; 0x8001f20
        0x08001db8:    4d18        .M      LDR      r5,[pc,#96] ; [0x8001e1c] = 0x20003c68
        0x08001dba:    786c        lx      LDRB     r4,[r5,#1]
        0x08001dbc:    e018        ..      B        0x8001df0 ; rt_pop_req + 72
        0x08001dbe:    bf00        ..      NOP      
        0x08001dc0:    eb0501c4    ....    ADD      r1,r5,r4,LSL #3
        0x08001dc4:    6848        Hh      LDR      r0,[r1,#4]
        0x08001dc6:    7802        .x      LDRB     r2,[r0,#0]
        0x08001dc8:    b1ea        ..      CBZ      r2,0x8001e06 ; rt_pop_req + 94
        0x08001dca:    2a01        .*      CMP      r2,#1
        0x08001dcc:    d020         .      BEQ      0x8001e10 ; rt_pop_req + 104
        0x08001dce:    f000f8ff    ....    BL       rt_sem_psh ; 0x8001fd0
        0x08001dd2:    78e8        .x      LDRB     r0,[r5,#3]
        0x08001dd4:    1c64        d.      ADDS     r4,r4,#1
        0x08001dd6:    4284        .B      CMP      r4,r0
        0x08001dd8:    d100        ..      BNE      0x8001ddc ; rt_pop_req + 52
        0x08001dda:    2400        .$      MOVS     r4,#0
        0x08001ddc:    480f        .H      LDR      r0,[pc,#60] ; [0x8001e1c] = 0x20003c68
        0x08001dde:    1c80        ..      ADDS     r0,r0,#2
        0x08001de0:    e8d01f4f    ..O.    LDREXB   r1,[r0]
        0x08001de4:    1e49        I.      SUBS     r1,r1,#1
        0x08001de6:    b2c9        ..      UXTB     r1,r1
        0x08001de8:    e8c01f42    ..B.    STREXB   r2,r1,[r0]
        0x08001dec:    2a00        .*      CMP      r2,#0
        0x08001dee:    d1f7        ..      BNE      0x8001de0 ; rt_pop_req + 56
        0x08001df0:    78a8        .x      LDRB     r0,[r5,#2]
        0x08001df2:    2800        .(      CMP      r0,#0
        0x08001df4:    d1e4        ..      BNE      0x8001dc0 ; rt_pop_req + 24
        0x08001df6:    706c        lp      STRB     r4,[r5,#1]
        0x08001df8:    4809        .H      LDR      r0,[pc,#36] ; [0x8001e20] = 0x20003d58
        0x08001dfa:    f7fffdf1    ....    BL       rt_get_first ; 0x80019e0
        0x08001dfe:    e8bd4070    ..p@    POP      {r4-r6,lr}
        0x08001e02:    f000b911    ....    B.W      rt_switch_req ; 0x8002028
        0x08001e06:    8909        ..      LDRH     r1,[r1,#8]
        0x08001e08:    b289        ..      UXTH     r1,r1
        0x08001e0a:    f7fffd9d    ....    BL       rt_evt_psh ; 0x8001948
        0x08001e0e:    e7e0        ..      B        0x8001dd2 ; rt_pop_req + 42
        0x08001e10:    6889        .h      LDR      r1,[r1,#8]
        0x08001e12:    f7fffe8d    ....    BL       rt_mbx_psh ; 0x8001b30
        0x08001e16:    e7dc        ..      B        0x8001dd2 ; rt_pop_req + 42
    $d
        0x08001e18:    200000b4    ...     DCD    536871092
        0x08001e1c:    20003c68    h<.     DCD    536886376
        0x08001e20:    20003d58    X=.     DCD    536886616
    $t
    i.rt_psh_req
    rt_psh_req
        0x08001e24:    4805        .H      LDR      r0,[pc,#20] ; [0x8001e3c] = 0x200000bc
        0x08001e26:    7801        .x      LDRB     r1,[r0,#0]
        0x08001e28:    b111        ..      CBZ      r1,0x8001e30 ; rt_psh_req + 12
        0x08001e2a:    2101        .!      MOVS     r1,#1
        0x08001e2c:    7041        Ap      STRB     r1,[r0,#1]
        0x08001e2e:    4770        pG      BX       lr
        0x08001e30:    4903        .I      LDR      r1,[pc,#12] ; [0x8001e40] = 0xe000ed04
        0x08001e32:    f04f5080    O..P    MOV      r0,#0x10000000
        0x08001e36:    6008        .`      STR      r0,[r1,#0]
        0x08001e38:    4770        pG      BX       lr
    $d
        0x08001e3a:    0000        ..      DCW    0
        0x08001e3c:    200000bc    ...     DCD    536871100
        0x08001e40:    e000ed04    ....    DCD    3758157060
    $t
    i.rt_psq_enq
    rt_psq_enq
        0x08001e44:    b4f0        ..      PUSH     {r4-r7}
        0x08001e46:    4d15        .M      LDR      r5,[pc,#84] ; [0x8001e9c] = 0x20003c68
        0x08001e48:    1cab        ..      ADDS     r3,r5,#2
        0x08001e4a:    78ee        .x      LDRB     r6,[r5,#3]
        0x08001e4c:    ea4f0705    O...    MOV.W    r7,r5
        0x08001e50:    e8d32f4f    ..O/    LDREXB   r2,[r3]
        0x08001e54:    42b2        .B      CMP      r2,r6
        0x08001e56:    d102        ..      BNE      0x8001e5e ; rt_psq_enq + 26
        0x08001e58:    f3bf8f2f    ../.    CLREX    
        0x08001e5c:    e011        ..      B        0x8001e82 ; rt_psq_enq + 62
        0x08001e5e:    1c52        R.      ADDS     r2,r2,#1
        0x08001e60:    b2d4        ..      UXTB     r4,r2
        0x08001e62:    e8c34f42    ..BO    STREXB   r2,r4,[r3]
        0x08001e66:    2a00        .*      CMP      r2,#0
        0x08001e68:    d1f2        ..      BNE      0x8001e50 ; rt_psq_enq + 12
        0x08001e6a:    bf00        ..      NOP      
        0x08001e6c:    e8d72f4f    ..O/    LDREXB   r2,[r7]
        0x08001e70:    1c54        T.      ADDS     r4,r2,#1
        0x08001e72:    42b4        .B      CMP      r4,r6
        0x08001e74:    d100        ..      BNE      0x8001e78 ; rt_psq_enq + 52
        0x08001e76:    2400        .$      MOVS     r4,#0
        0x08001e78:    b2e4        ..      UXTB     r4,r4
        0x08001e7a:    e8c74f43    ..CO    STREXB   r3,r4,[r7]
        0x08001e7e:    2b00        .+      CMP      r3,#0
        0x08001e80:    d1f4        ..      BNE      0x8001e6c ; rt_psq_enq + 40
        0x08001e82:    78eb        .x      LDRB     r3,[r5,#3]
        0x08001e84:    4293        .B      CMP      r3,r2
        0x08001e86:    d905        ..      BLS      0x8001e94 ; rt_psq_enq + 80
        0x08001e88:    eb0502c2    ....    ADD      r2,r5,r2,LSL #3
        0x08001e8c:    e9c20101    ....    STRD     r0,r1,[r2,#4]
        0x08001e90:    bcf0        ..      POP      {r4-r7}
        0x08001e92:    4770        pG      BX       lr
        0x08001e94:    bcf0        ..      POP      {r4-r7}
        0x08001e96:    2002        .       MOVS     r0,#2
        0x08001e98:    f7ffbc14    ....    B.W      os_error ; 0x80016c4
    $d
        0x08001e9c:    20003c68    h<.     DCD    536886376
    $t
    i.rt_put_dly
    rt_put_dly
        0x08001ea0:    4a10        .J      LDR      r2,[pc,#64] ; [0x8001ee4] = 0x20003d70
        0x08001ea2:    b510        ..      PUSH     {r4,lr}
        0x08001ea4:    68d3        .h      LDR      r3,[r2,#0xc]
        0x08001ea6:    b1ab        ..      CBZ      r3,0x8001ed4 ; rt_put_dly + 52
        0x08001ea8:    4613        .F      MOV      r3,r2
        0x08001eaa:    8a9b        ..      LDRH     r3,[r3,#0x14]
        0x08001eac:    e003        ..      B        0x8001eb6 ; rt_put_dly + 22
        0x08001eae:    b18c        ..      CBZ      r4,0x8001ed4 ; rt_put_dly + 52
        0x08001eb0:    4622        "F      MOV      r2,r4
        0x08001eb2:    8aa4        ..      LDRH     r4,[r4,#0x14]
        0x08001eb4:    4423        #D      ADD      r3,r3,r4
        0x08001eb6:    68d4        .h      LDR      r4,[r2,#0xc]
        0x08001eb8:    428b        .B      CMP      r3,r1
        0x08001eba:    d3f8        ..      BCC      0x8001eae ; rt_put_dly + 14
        0x08001ebc:    60c4        .`      STR      r4,[r0,#0xc]
        0x08001ebe:    60d0        .`      STR      r0,[r2,#0xc]
        0x08001ec0:    6102        .a      STR      r2,[r0,#0x10]
        0x08001ec2:    68c4        .h      LDR      r4,[r0,#0xc]
        0x08001ec4:    b104        ..      CBZ      r4,0x8001ec8 ; rt_put_dly + 40
        0x08001ec6:    6120         a      STR      r0,[r4,#0x10]
        0x08001ec8:    1a59        Y.      SUBS     r1,r3,r1
        0x08001eca:    8281        ..      STRH     r1,[r0,#0x14]
        0x08001ecc:    8a90        ..      LDRH     r0,[r2,#0x14]
        0x08001ece:    1a40        @.      SUBS     r0,r0,r1
        0x08001ed0:    8290        ..      STRH     r0,[r2,#0x14]
        0x08001ed2:    bd10        ..      POP      {r4,pc}
        0x08001ed4:    2400        .$      MOVS     r4,#0
        0x08001ed6:    60c4        .`      STR      r4,[r0,#0xc]
        0x08001ed8:    60d0        .`      STR      r0,[r2,#0xc]
        0x08001eda:    1ac9        ..      SUBS     r1,r1,r3
        0x08001edc:    6102        .a      STR      r2,[r0,#0x10]
        0x08001ede:    8291        ..      STRH     r1,[r2,#0x14]
        0x08001ee0:    8284        ..      STRH     r4,[r0,#0x14]
        0x08001ee2:    bd10        ..      POP      {r4,pc}
    $d
        0x08001ee4:    20003d70    p=.     DCD    536886640
    $t
    i.rt_put_prio
    rt_put_prio
        0x08001ee8:    b530        0.      PUSH     {r4,r5,lr}
        0x08001eea:    7802        .x      LDRB     r2,[r0,#0]
        0x08001eec:    2300        .#      MOVS     r3,#0
        0x08001eee:    2a02        .*      CMP      r2,#2
        0x08001ef0:    d003        ..      BEQ      0x8001efa ; rt_put_prio + 18
        0x08001ef2:    2a01        .*      CMP      r2,#1
        0x08001ef4:    d001        ..      BEQ      0x8001efa ; rt_put_prio + 18
        0x08001ef6:    2a03        .*      CMP      r2,#3
        0x08001ef8:    d100        ..      BNE      0x8001efc ; rt_put_prio + 20
        0x08001efa:    2301        .#      MOVS     r3,#1
        0x08001efc:    788c        .x      LDRB     r4,[r1,#2]
        0x08001efe:    e000        ..      B        0x8001f02 ; rt_put_prio + 26
        0x08001f00:    4610        .F      MOV      r0,r2
        0x08001f02:    6842        Bh      LDR      r2,[r0,#4]
        0x08001f04:    b112        ..      CBZ      r2,0x8001f0c ; rt_put_prio + 36
        0x08001f06:    7895        .x      LDRB     r5,[r2,#2]
        0x08001f08:    42a5        .B      CMP      r5,r4
        0x08001f0a:    d2f9        ..      BCS      0x8001f00 ; rt_put_prio + 24
        0x08001f0c:    604a        J`      STR      r2,[r1,#4]
        0x08001f0e:    6041        A`      STR      r1,[r0,#4]
        0x08001f10:    b11b        ..      CBZ      r3,0x8001f1a ; rt_put_prio + 50
        0x08001f12:    b102        ..      CBZ      r2,0x8001f16 ; rt_put_prio + 46
        0x08001f14:    6091        .`      STR      r1,[r2,#8]
        0x08001f16:    6088        .`      STR      r0,[r1,#8]
        0x08001f18:    bd30        0.      POP      {r4,r5,pc}
        0x08001f1a:    2000        .       MOVS     r0,#0
        0x08001f1c:    e7fb        ..      B        0x8001f16 ; rt_put_prio + 46
        0x08001f1e:    0000        ..      MOVS     r0,r0
    i.rt_put_rdy_first
    rt_put_rdy_first
        0x08001f20:    4903        .I      LDR      r1,[pc,#12] ; [0x8001f30] = 0x20003d58
        0x08001f22:    684a        Jh      LDR      r2,[r1,#4]
        0x08001f24:    6042        B`      STR      r2,[r0,#4]
        0x08001f26:    2200        ."      MOVS     r2,#0
        0x08001f28:    6082        .`      STR      r2,[r0,#8]
        0x08001f2a:    6048        H`      STR      r0,[r1,#4]
        0x08001f2c:    4770        pG      BX       lr
    $d
        0x08001f2e:    0000        ..      DCW    0
        0x08001f30:    20003d58    X=.     DCD    536886616
    $t
    i.rt_resort_prio
    rt_resort_prio
        0x08001f34:    b510        ..      PUSH     {r4,lr}
        0x08001f36:    6883        .h      LDR      r3,[r0,#8]
        0x08001f38:    4604        .F      MOV      r4,r0
        0x08001f3a:    b92b        +.      CBNZ     r3,0x8001f48 ; rt_resort_prio + 20
        0x08001f3c:    7860        `x      LDRB     r0,[r4,#1]
        0x08001f3e:    2801        .(      CMP      r0,#1
        0x08001f40:    d10e        ..      BNE      0x8001f60 ; rt_resort_prio + 44
        0x08001f42:    4b08        .K      LDR      r3,[pc,#32] ; [0x8001f64] = 0x20003d58
        0x08001f44:    e003        ..      B        0x8001f4e ; rt_resort_prio + 26
        0x08001f46:    689b        .h      LDR      r3,[r3,#8]
        0x08001f48:    7818        .x      LDRB     r0,[r3,#0]
        0x08001f4a:    2800        .(      CMP      r0,#0
        0x08001f4c:    d0fb        ..      BEQ      0x8001f46 ; rt_resort_prio + 18
        0x08001f4e:    4620         F      MOV      r0,r4
        0x08001f50:    f000f826    ..&.    BL       rt_rmv_list ; 0x8001fa0
        0x08001f54:    4621        !F      MOV      r1,r4
        0x08001f56:    e8bd4010    ...@    POP      {r4,lr}
        0x08001f5a:    4618        .F      MOV      r0,r3
        0x08001f5c:    f7ffbfc4    ....    B.W      rt_put_prio ; 0x8001ee8
        0x08001f60:    bd10        ..      POP      {r4,pc}
    $d
        0x08001f62:    0000        ..      DCW    0
        0x08001f64:    20003d58    X=.     DCD    536886616
    $t
    i.rt_ret_val
    rt_ret_val
        0x08001f68:    6a80        .j      LDR      r0,[r0,#0x28]
        0x08001f6a:    6201        .b      STR      r1,[r0,#0x20]
        0x08001f6c:    4770        pG      BX       lr
    i.rt_ret_val2
    rt_ret_val2
        0x08001f6e:    6a80        .j      LDR      r0,[r0,#0x28]
        0x08001f70:    e9c01208    ....    STRD     r1,r2,[r0,#0x20]
        0x08001f74:    4770        pG      BX       lr
    i.rt_rmv_dly
    rt_rmv_dly
        0x08001f76:    b510        ..      PUSH     {r4,lr}
        0x08001f78:    6901        .i      LDR      r1,[r0,#0x10]
        0x08001f7a:    2900        .)      CMP      r1,#0
        0x08001f7c:    d00e        ..      BEQ      0x8001f9c ; rt_rmv_dly + 38
        0x08001f7e:    68c2        .h      LDR      r2,[r0,#0xc]
        0x08001f80:    60ca        .`      STR      r2,[r1,#0xc]
        0x08001f82:    68c3        .h      LDR      r3,[r0,#0xc]
        0x08001f84:    2200        ."      MOVS     r2,#0
        0x08001f86:    b13b        ;.      CBZ      r3,0x8001f98 ; rt_rmv_dly + 34
        0x08001f88:    8a8b        ..      LDRH     r3,[r1,#0x14]
        0x08001f8a:    8a84        ..      LDRH     r4,[r0,#0x14]
        0x08001f8c:    4423        #D      ADD      r3,r3,r4
        0x08001f8e:    828b        ..      STRH     r3,[r1,#0x14]
        0x08001f90:    68c3        .h      LDR      r3,[r0,#0xc]
        0x08001f92:    6119        .a      STR      r1,[r3,#0x10]
        0x08001f94:    60c2        .`      STR      r2,[r0,#0xc]
        0x08001f96:    e000        ..      B        0x8001f9a ; rt_rmv_dly + 36
        0x08001f98:    828a        ..      STRH     r2,[r1,#0x14]
        0x08001f9a:    6102        .a      STR      r2,[r0,#0x10]
        0x08001f9c:    bd10        ..      POP      {r4,pc}
        0x08001f9e:    0000        ..      MOVS     r0,r0
    i.rt_rmv_list
    rt_rmv_list
        0x08001fa0:    6881        .h      LDR      r1,[r0,#8]
        0x08001fa2:    b139        9.      CBZ      r1,0x8001fb4 ; rt_rmv_list + 20
        0x08001fa4:    6842        Bh      LDR      r2,[r0,#4]
        0x08001fa6:    604a        J`      STR      r2,[r1,#4]
        0x08001fa8:    6841        Ah      LDR      r1,[r0,#4]
        0x08001faa:    2900        .)      CMP      r1,#0
        0x08001fac:    d001        ..      BEQ      0x8001fb2 ; rt_rmv_list + 18
        0x08001fae:    6880        .h      LDR      r0,[r0,#8]
        0x08001fb0:    6088        .`      STR      r0,[r1,#8]
        0x08001fb2:    4770        pG      BX       lr
        0x08001fb4:    4905        .I      LDR      r1,[pc,#20] ; [0x8001fcc] = 0x20003d58
        0x08001fb6:    e006        ..      B        0x8001fc6 ; rt_rmv_list + 38
        0x08001fb8:    684a        Jh      LDR      r2,[r1,#4]
        0x08001fba:    4282        .B      CMP      r2,r0
        0x08001fbc:    d102        ..      BNE      0x8001fc4 ; rt_rmv_list + 36
        0x08001fbe:    6840        @h      LDR      r0,[r0,#4]
        0x08001fc0:    6048        H`      STR      r0,[r1,#4]
        0x08001fc2:    4770        pG      BX       lr
        0x08001fc4:    4611        .F      MOV      r1,r2
        0x08001fc6:    2900        .)      CMP      r1,#0
        0x08001fc8:    d1f6        ..      BNE      0x8001fb8 ; rt_rmv_list + 24
        0x08001fca:    4770        pG      BX       lr
    $d
        0x08001fcc:    20003d58    X=.     DCD    536886616
    $t
    i.rt_sem_psh
    rt_sem_psh
        0x08001fd0:    b510        ..      PUSH     {r4,lr}
        0x08001fd2:    6841        Ah      LDR      r1,[r0,#4]
        0x08001fd4:    b181        ..      CBZ      r1,0x8001ff8 ; rt_sem_psh + 40
        0x08001fd6:    f7fffd03    ....    BL       rt_get_first ; 0x80019e0
        0x08001fda:    4604        .F      MOV      r4,r0
        0x08001fdc:    f7ffffcb    ....    BL       rt_rmv_dly ; 0x8001f76
        0x08001fe0:    2001        .       MOVS     r0,#1
        0x08001fe2:    7060        `p      STRB     r0,[r4,#1]
        0x08001fe4:    4601        .F      MOV      r1,r0
        0x08001fe6:    4620         F      MOV      r0,r4
        0x08001fe8:    f7ffffbe    ....    BL       rt_ret_val ; 0x8001f68
        0x08001fec:    4621        !F      MOV      r1,r4
        0x08001fee:    e8bd4010    ...@    POP      {r4,lr}
        0x08001ff2:    4803        .H      LDR      r0,[pc,#12] ; [0x8002000] = 0x20003d58
        0x08001ff4:    f7ffbf78    ..x.    B.W      rt_put_prio ; 0x8001ee8
        0x08001ff8:    8841        A.      LDRH     r1,[r0,#2]
        0x08001ffa:    1c49        I.      ADDS     r1,r1,#1
        0x08001ffc:    8041        A.      STRH     r1,[r0,#2]
        0x08001ffe:    bd10        ..      POP      {r4,pc}
    $d
        0x08002000:    20003d58    X=.     DCD    536886616
    $t
    i.rt_stk_check
    rt_stk_check
        0x08002004:    4806        .H      LDR      r0,[pc,#24] ; [0x8002020] = 0x200000b4
        0x08002006:    6800        .h      LDR      r0,[r0,#0]
        0x08002008:    e9d0100a    ....    LDRD     r1,r0,[r0,#0x28]
        0x0800200c:    4281        .B      CMP      r1,r0
        0x0800200e:    d303        ..      BCC      0x8002018 ; rt_stk_check + 20
        0x08002010:    6800        .h      LDR      r0,[r0,#0]
        0x08002012:    4904        .I      LDR      r1,[pc,#16] ; [0x8002024] = 0xe25a2ea5
        0x08002014:    4288        .B      CMP      r0,r1
        0x08002016:    d002        ..      BEQ      0x800201e ; rt_stk_check + 26
        0x08002018:    2001        .       MOVS     r0,#1
        0x0800201a:    f7ffbb53    ..S.    B        os_error ; 0x80016c4
        0x0800201e:    4770        pG      BX       lr
    $d
        0x08002020:    200000b4    ...     DCD    536871092
        0x08002024:    e25a2ea5    ..Z.    DCD    3797560997
    $t
    i.rt_switch_req
    rt_switch_req
        0x08002028:    4907        .I      LDR      r1,[pc,#28] ; [0x8002048] = 0x200000b4
        0x0800202a:    2202        ."      MOVS     r2,#2
        0x0800202c:    6048        H`      STR      r0,[r1,#4]
        0x0800202e:    7042        Bp      STRB     r2,[r0,#1]
        0x08002030:    4a06        .J      LDR      r2,[pc,#24] ; [0x800204c] = 0x200000c8
        0x08002032:    7812        .x      LDRB     r2,[r2,#0]
        0x08002034:    2a00        .*      CMP      r2,#0
        0x08002036:    d005        ..      BEQ      0x8002044 ; rt_switch_req + 28
        0x08002038:    c906        ..      LDM      r1,{r1,r2}
        0x0800203a:    428a        .B      CMP      r2,r1
        0x0800203c:    d002        ..      BEQ      0x8002044 ; rt_switch_req + 28
        0x0800203e:    78c0        .x      LDRB     r0,[r0,#3]
        0x08002040:    f7ffb8bc    ....    B        dbg_task_switch ; 0x80011bc
        0x08002044:    4770        pG      BX       lr
    $d
        0x08002046:    0000        ..      DCW    0
        0x08002048:    200000b4    ...     DCD    536871092
        0x0800204c:    200000c8    ...     DCD    536871112
    $t
    i.rt_sys_init
    rt_sys_init
        0x08002050:    b570        p.      PUSH     {r4-r6,lr}
        0x08002052:    f7fff88b    ....    BL       dbg_init ; 0x800116c
        0x08002056:    2000        .       MOVS     r0,#0
        0x08002058:    4604        .F      MOV      r4,r0
        0x0800205a:    4a20         J      LDR      r2,[pc,#128] ; [0x80020dc] = 0x20003cec
        0x0800205c:    4920         I      LDR      r1,[pc,#128] ; [0x80020e0] = 0x8002b10
        0x0800205e:    e002        ..      B        0x8002066 ; rt_sys_init + 22
        0x08002060:    f8424020    B. @    STR      r4,[r2,r0,LSL #2]
        0x08002064:    1c40        @.      ADDS     r0,r0,#1
        0x08002066:    880b        ..      LDRH     r3,[r1,#0]
        0x08002068:    4298        .B      CMP      r0,r3
        0x0800206a:    d3f9        ..      BCC      0x8002060 ; rt_sys_init + 16
        0x0800206c:    481d        .H      LDR      r0,[pc,#116] ; [0x80020e4] = 0x8002b3c
        0x0800206e:    2234        4"      MOVS     r2,#0x34
        0x08002070:    8801        ..      LDRH     r1,[r0,#0]
        0x08002072:    481d        .H      LDR      r0,[pc,#116] ; [0x80020e8] = 0x20000228
        0x08002074:    f7fefcf1    ....    BL       _init_box ; 0x8000a5a
        0x08002078:    481c        .H      LDR      r0,[pc,#112] ; [0x80020ec] = 0x8002b14
        0x0800207a:    8800        ..      LDRH     r0,[r0,#0]
        0x0800207c:    b280        ..      UXTH     r0,r0
        0x0800207e:    f0404200    @..B    ORR      r2,r0,#0x80000000
        0x08002082:    481b        .H      LDR      r0,[pc,#108] ; [0x80020f0] = 0x8002b40
        0x08002084:    6801        .h      LDR      r1,[r0,#0]
        0x08002086:    481b        .H      LDR      r0,[pc,#108] ; [0x80020f4] = 0x20000370
        0x08002088:    f7fefce7    ....    BL       _init_box ; 0x8000a5a
        0x0800208c:    481a        .H      LDR      r0,[pc,#104] ; [0x80020f8] = 0x8002b64
        0x0800208e:    2208        ."      MOVS     r2,#8
        0x08002090:    8801        ..      LDRH     r1,[r0,#0]
        0x08002092:    481a        .H      LDR      r0,[pc,#104] ; [0x80020fc] = 0x20000098
        0x08002094:    6800        .h      LDR      r0,[r0,#0]
        0x08002096:    f7fefce0    ....    BL       _init_box ; 0x8000a5a
        0x0800209a:    4d19        .M      LDR      r5,[pc,#100] ; [0x8002100] = 0x20003d24
        0x0800209c:    20ff        .       MOVS     r0,#0xff
        0x0800209e:    4a19        .J      LDR      r2,[pc,#100] ; [0x8002104] = 0x8001715
        0x080020a0:    70e8        .p      STRB     r0,[r5,#3]
        0x080020a2:    84ec        ..      STRH     r4,[r5,#0x26]
        0x080020a4:    2100        .!      MOVS     r1,#0
        0x080020a6:    4628        (F      MOV      r0,r5
        0x080020a8:    f7fffcb2    ....    BL       rt_init_context ; 0x8001a10
        0x080020ac:    4816        .H      LDR      r0,[pc,#88] ; [0x8002108] = 0x20003d58
        0x080020ae:    2104        .!      MOVS     r1,#4
        0x080020b0:    7001        .p      STRB     r1,[r0,#0]
        0x080020b2:    6044        D`      STR      r4,[r0,#4]
        0x080020b4:    4815        .H      LDR      r0,[pc,#84] ; [0x800210c] = 0x20003d70
        0x080020b6:    7001        .p      STRB     r1,[r0,#0]
        0x080020b8:    60c4        .`      STR      r4,[r0,#0xc]
        0x080020ba:    6104        .a      STR      r4,[r0,#0x10]
        0x080020bc:    8284        ..      STRH     r4,[r0,#0x14]
        0x080020be:    4814        .H      LDR      r0,[pc,#80] ; [0x8002110] = 0x200000b4
        0x080020c0:    4915        .I      LDR      r1,[pc,#84] ; [0x8002118] = 0x8002b48
        0x080020c2:    6005        .`      STR      r5,[r0,#0]
        0x080020c4:    2002        .       MOVS     r0,#2
        0x080020c6:    7068        hp      STRB     r0,[r5,#1]
        0x080020c8:    4812        .H      LDR      r0,[pc,#72] ; [0x8002114] = 0x20003c68
        0x080020ca:    7004        .p      STRB     r4,[r0,#0]
        0x080020cc:    7044        Dp      STRB     r4,[r0,#1]
        0x080020ce:    7809        .x      LDRB     r1,[r1,#0]
        0x080020d0:    70c1        .p      STRB     r1,[r0,#3]
        0x080020d2:    e8bd4070    ..p@    POP      {r4-r6,lr}
        0x080020d6:    f7ffbccd    ....    B.W      rt_init_robin ; 0x8001a74
    $d
        0x080020da:    0000        ..      DCW    0
        0x080020dc:    20003cec    .<.     DCD    536886508
        0x080020e0:    08002b10    .+..    DCD    134228752
        0x080020e4:    08002b3c    <+..    DCD    134228796
        0x080020e8:    20000228    (..     DCD    536871464
        0x080020ec:    08002b14    .+..    DCD    134228756
        0x080020f0:    08002b40    @+..    DCD    134228800
        0x080020f4:    20000370    p..     DCD    536871792
        0x080020f8:    08002b64    d+..    DCD    134228836
        0x080020fc:    20000098    ...     DCD    536871064
        0x08002100:    20003d24    $=.     DCD    536886564
        0x08002104:    08001715    ....    DCD    134223637
        0x08002108:    20003d58    X=.     DCD    536886616
        0x0800210c:    20003d70    p=.     DCD    536886640
        0x08002110:    200000b4    ...     DCD    536871092
        0x08002114:    20003c68    h<.     DCD    536886376
        0x08002118:    08002b48    H+..    DCD    134228808
    $t
    i.rt_sys_start
    rt_sys_start
        0x0800211c:    481b        .H      LDR      r0,[pc,#108] ; [0x800218c] = 0xe000ed20
        0x0800211e:    b510        ..      PUSH     {r4,lr}
        0x08002120:    6801        .h      LDR      r1,[r0,#0]
        0x08002122:    f441017f    A...    ORR      r1,r1,#0xff0000
        0x08002126:    6001        .`      STR      r1,[r0,#0]
        0x08002128:    6800        .h      LDR      r0,[r0,#0]
        0x0800212a:    f04f417f    O..A    MOV      r1,#0xff000000
        0x0800212e:    ea012000    ...     AND      r0,r1,r0,LSL #8
        0x08002132:    4916        .I      LDR      r1,[pc,#88] ; [0x800218c] = 0xe000ed20
        0x08002134:    43c0        .C      MVNS     r0,r0
        0x08002136:    3914        .9      SUBS     r1,r1,#0x14
        0x08002138:    fab0f080    ....    CLZ      r0,r0
        0x0800213c:    6809        .h      LDR      r1,[r1,#0]
        0x0800213e:    f1c00008    ....    RSB      r0,r0,#8
        0x08002142:    f3c12102    ...!    UBFX     r1,r1,#8,#3
        0x08002146:    4281        .B      CMP      r1,r0
        0x08002148:    db00        ..      BLT      0x800214c ; rt_sys_start + 48
        0x0800214a:    1c48        H.      ADDS     r0,r1,#1
        0x0800214c:    490f        .I      LDR      r1,[pc,#60] ; [0x800218c] = 0xe000ed20
        0x0800214e:    1f09        ..      SUBS     r1,r1,#4
        0x08002150:    680b        .h      LDR      r3,[r1,#0]
        0x08002152:    f06f7280    o..r    MVN      r2,#0x1000000
        0x08002156:    4082        .@      LSLS     r2,r2,r0
        0x08002158:    f3630217    c...    BFI      r2,r3,#0,#24
        0x0800215c:    600a        .`      STR      r2,[r1,#0]
        0x0800215e:    f7fffadb    ....    BL       os_tick_init ; 0x8001718
        0x08002162:    490b        .I      LDR      r1,[pc,#44] ; [0x8002190] = 0x200000c0
        0x08002164:    2800        .(      CMP      r0,#0
        0x08002166:    6008        .`      STR      r0,[r1,#0]
        0x08002168:    db0e        ..      BLT      0x8002188 ; rt_sys_start + 108
        0x0800216a:    f10021e0    ...!    ADD      r1,r0,#0xe000e000
        0x0800216e:    22ff        ."      MOVS     r2,#0xff
        0x08002170:    f8812400    ...$    STRB     r2,[r1,#0x400]
        0x08002174:    f000021f    ....    AND      r2,r0,#0x1f
        0x08002178:    2101        .!      MOVS     r1,#1
        0x0800217a:    4091        .@      LSLS     r1,r1,r2
        0x0800217c:    1140        @.      ASRS     r0,r0,#5
        0x0800217e:    0080        ..      LSLS     r0,r0,#2
        0x08002180:    f10020e0    ...     ADD      r0,r0,#0xe000e000
        0x08002184:    f8c01100    ....    STR      r1,[r0,#0x100]
        0x08002188:    bd10        ..      POP      {r4,pc}
    $d
        0x0800218a:    0000        ..      DCW    0
        0x0800218c:    e000ed20     ...    DCD    3758157088
        0x08002190:    200000c0    ...     DCD    536871104
    $t
    i.rt_systick
    rt_systick
        0x08002194:    480c        .H      LDR      r0,[pc,#48] ; [0x80021c8] = 0x200000b4
        0x08002196:    b510        ..      PUSH     {r4,lr}
        0x08002198:    6802        .h      LDR      r2,[r0,#0]
        0x0800219a:    2101        .!      MOVS     r1,#1
        0x0800219c:    7051        Qp      STRB     r1,[r2,#1]
        0x0800219e:    6800        .h      LDR      r0,[r0,#0]
        0x080021a0:    f7fffebe    ....    BL       rt_put_rdy_first ; 0x8001f20
        0x080021a4:    f7fffb48    ..H.    BL       rt_chk_robin ; 0x8001838
        0x080021a8:    4808        .H      LDR      r0,[pc,#32] ; [0x80021cc] = 0x200000c4
        0x080021aa:    6801        .h      LDR      r1,[r0,#0]
        0x080021ac:    1c49        I.      ADDS     r1,r1,#1
        0x080021ae:    6001        .`      STR      r1,[r0,#0]
        0x080021b0:    f7fffb70    ..p.    BL       rt_dec_dly ; 0x8001894
        0x080021b4:    f000fb48    ..H.    BL       sysTimerTick ; 0x8002848
        0x080021b8:    4805        .H      LDR      r0,[pc,#20] ; [0x80021d0] = 0x20003d58
        0x080021ba:    f7fffc11    ....    BL       rt_get_first ; 0x80019e0
        0x080021be:    e8bd4010    ...@    POP      {r4,lr}
        0x080021c2:    f7ffbf31    ..1.    B.W      rt_switch_req ; 0x8002028
    $d
        0x080021c6:    0000        ..      DCW    0
        0x080021c8:    200000b4    ...     DCD    536871092
        0x080021cc:    200000c4    ...     DCD    536871108
        0x080021d0:    20003d58    X=.     DCD    536886616
    $t
    i.rt_tid2ptcb
    rt_tid2ptcb
        0x080021d4:    2800        .(      CMP      r0,#0
        0x080021d6:    d005        ..      BEQ      0x80021e4 ; rt_tid2ptcb + 16
        0x080021d8:    0781        ..      LSLS     r1,r0,#30
        0x080021da:    d102        ..      BNE      0x80021e2 ; rt_tid2ptcb + 14
        0x080021dc:    7801        .x      LDRB     r1,[r0,#0]
        0x080021de:    2900        .)      CMP      r1,#0
        0x080021e0:    d000        ..      BEQ      0x80021e4 ; rt_tid2ptcb + 16
        0x080021e2:    2000        .       MOVS     r0,#0
        0x080021e4:    4770        pG      BX       lr
        0x080021e6:    0000        ..      MOVS     r0,r0
    i.rt_timer_insert
    rt_timer_insert
        0x080021e8:    b530        0.      PUSH     {r4,r5,lr}
        0x080021ea:    4c0b        .L      LDR      r4,[pc,#44] ; [0x8002218] = 0x200000ac
        0x080021ec:    2300        .#      MOVS     r3,#0
        0x080021ee:    6862        bh      LDR      r2,[r4,#4]
        0x080021f0:    e005        ..      B        0x80021fe ; rt_timer_insert + 22
        0x080021f2:    6895        .h      LDR      r5,[r2,#8]
        0x080021f4:    428d        .B      CMP      r5,r1
        0x080021f6:    d804        ..      BHI      0x8002202 ; rt_timer_insert + 26
        0x080021f8:    4613        .F      MOV      r3,r2
        0x080021fa:    6812        .h      LDR      r2,[r2,#0]
        0x080021fc:    1b49        I.      SUBS     r1,r1,r5
        0x080021fe:    2a00        .*      CMP      r2,#0
        0x08002200:    d1f7        ..      BNE      0x80021f2 ; rt_timer_insert + 10
        0x08002202:    6002        .`      STR      r2,[r0,#0]
        0x08002204:    6081        .`      STR      r1,[r0,#8]
        0x08002206:    b112        ..      CBZ      r2,0x800220e ; rt_timer_insert + 38
        0x08002208:    6895        .h      LDR      r5,[r2,#8]
        0x0800220a:    1a69        i.      SUBS     r1,r5,r1
        0x0800220c:    6091        .`      STR      r1,[r2,#8]
        0x0800220e:    b10b        ..      CBZ      r3,0x8002214 ; rt_timer_insert + 44
        0x08002210:    6018        .`      STR      r0,[r3,#0]
        0x08002212:    bd30        0.      POP      {r4,r5,pc}
        0x08002214:    6060        ``      STR      r0,[r4,#4]
        0x08002216:    bd30        0.      POP      {r4,r5,pc}
    $d
        0x08002218:    200000ac    ...     DCD    536871084
    $t
    i.rt_tsk_create
    rt_tsk_create
        0x0800221c:    e92d41f0    -..A    PUSH     {r4-r8,lr}
        0x08002220:    461e        .F      MOV      r6,r3
        0x08002222:    4617        .F      MOV      r7,r2
        0x08002224:    4680        .F      MOV      r8,r0
        0x08002226:    460c        .F      MOV      r4,r1
        0x08002228:    f0110fff    ....    TST      r1,#0xff
        0x0800222c:    d100        ..      BNE      0x8002230 ; rt_tsk_create + 20
        0x0800222e:    1c4c        L.      ADDS     r4,r1,#1
        0x08002230:    4816        .H      LDR      r0,[pc,#88] ; [0x800228c] = 0x20000228
        0x08002232:    f7fffab9    ....    BL       rt_alloc_box ; 0x80017a8
        0x08002236:    0005        ..      MOVS     r5,r0
        0x08002238:    d026        &.      BEQ      0x8002288 ; rt_tsk_create + 108
        0x0800223a:    0a20         .      LSRS     r0,r4,#8
        0x0800223c:    62ef        .b      STR      r7,[r5,#0x2c]
        0x0800223e:    84e8        ..      STRH     r0,[r5,#0x26]
        0x08002240:    b2e1        ..      UXTB     r1,r4
        0x08002242:    4642        BF      MOV      r2,r8
        0x08002244:    4628        (F      MOV      r0,r5
        0x08002246:    61ee        .a      STR      r6,[r5,#0x1c]
        0x08002248:    f7fffbe2    ....    BL       rt_init_context ; 0x8001a10
        0x0800224c:    2401        .$      MOVS     r4,#1
        0x0800224e:    4810        .H      LDR      r0,[pc,#64] ; [0x8002290] = 0x20003cec
        0x08002250:    4910        .I      LDR      r1,[pc,#64] ; [0x8002294] = 0x8002b10
        0x08002252:    e005        ..      B        0x8002260 ; rt_tsk_create + 68
        0x08002254:    eb000284    ....    ADD      r2,r0,r4,LSL #2
        0x08002258:    f8522c04    R..,    LDR      r2,[r2,#-4]
        0x0800225c:    b122        ".      CBZ      r2,0x8002268 ; rt_tsk_create + 76
        0x0800225e:    1c64        d.      ADDS     r4,r4,#1
        0x08002260:    880a        ..      LDRH     r2,[r1,#0]
        0x08002262:    4294        .B      CMP      r4,r2
        0x08002264:    d9f6        ..      BLS      0x8002254 ; rt_tsk_create + 56
        0x08002266:    2400        .$      MOVS     r4,#0
        0x08002268:    eb000084    ....    ADD      r0,r0,r4,LSL #2
        0x0800226c:    f8405c04    @..\    STR      r5,[r0,#-4]
        0x08002270:    4809        .H      LDR      r0,[pc,#36] ; [0x8002298] = 0x200000c8
        0x08002272:    70ec        .p      STRB     r4,[r5,#3]
        0x08002274:    7800        .x      LDRB     r0,[r0,#0]
        0x08002276:    b118        ..      CBZ      r0,0x8002280 ; rt_tsk_create + 100
        0x08002278:    2101        .!      MOVS     r1,#1
        0x0800227a:    4628        (F      MOV      r0,r5
        0x0800227c:    f7feff8e    ....    BL       dbg_task_notify ; 0x800119c
        0x08002280:    4628        (F      MOV      r0,r5
        0x08002282:    f7fffb3f    ..?.    BL       rt_dispatch ; 0x8001904
        0x08002286:    4620         F      MOV      r0,r4
        0x08002288:    e8bd81f0    ....    POP      {r4-r8,pc}
    $d
        0x0800228c:    20000228    (..     DCD    536871464
        0x08002290:    20003cec    .<.     DCD    536886508
        0x08002294:    08002b10    .+..    DCD    134228752
        0x08002298:    200000c8    ...     DCD    536871112
    $t
    i.rt_tsk_delete
    rt_tsk_delete
        0x0800229c:    e92d5ff0    -.._    PUSH     {r4-r12,lr}
        0x080022a0:    4d56        VM      LDR      r5,[pc,#344] ; [0x80023fc] = 0x200000b4
        0x080022a2:    f8dfa150    ..P.    LDR      r10,[pc,#336] ; [0x80023f4] = 0x200000c8
        0x080022a6:    f8df9150    ..P.    LDR      r9,[pc,#336] ; [0x80023f8] = 0x20003cec
        0x080022aa:    6829        )h      LDR      r1,[r5,#0]
        0x080022ac:    f04f0800    O...    MOV      r8,#0
        0x080022b0:    2601        .&      MOVS     r6,#1
        0x080022b2:    b118        ..      CBZ      r0,0x80022bc ; rt_tsk_delete + 32
        0x080022b4:    78ca        .x      LDRB     r2,[r1,#3]
        0x080022b6:    46ab        .F      MOV      r11,r5
        0x080022b8:    4282        .B      CMP      r2,r0
        0x080022ba:    d141        A.      BNE      0x8002340 ; rt_tsk_delete + 164
        0x080022bc:    4647        GF      MOV      r7,r8
        0x080022be:    f8818001    ....    STRB     r8,[r1,#1]
        0x080022c2:    f7fdff28    ..(.    BL       rt_get_PSP ; 0x8000116
        0x080022c6:    6829        )h      LDR      r1,[r5,#0]
        0x080022c8:    6288        .b      STR      r0,[r1,#0x28]
        0x080022ca:    f7fffe9b    ....    BL       rt_stk_check ; 0x8002004
        0x080022ce:    6828        (h      LDR      r0,[r5,#0]
        0x080022d0:    46b0        .F      MOV      r8,r6
        0x080022d2:    6a04        .j      LDR      r4,[r0,#0x20]
        0x080022d4:    e01a        ..      B        0x800230c ; rt_tsk_delete + 112
        0x080022d6:    6860        `h      LDR      r0,[r4,#4]
        0x080022d8:    b1b8        ..      CBZ      r0,0x800230a ; rt_tsk_delete + 110
        0x080022da:    4620         F      MOV      r0,r4
        0x080022dc:    f7fffb80    ....    BL       rt_get_first ; 0x80019e0
        0x080022e0:    4606        .F      MOV      r6,r0
        0x080022e2:    2100        .!      MOVS     r1,#0
        0x080022e4:    f7fffe40    ..@.    BL       rt_ret_val ; 0x8001f68
        0x080022e8:    4630        0F      MOV      r0,r6
        0x080022ea:    f7fffe44    ..D.    BL       rt_rmv_dly ; 0x8001f76
        0x080022ee:    f8868001    ....    STRB     r8,[r6,#1]
        0x080022f2:    4631        1F      MOV      r1,r6
        0x080022f4:    4842        BH      LDR      r0,[pc,#264] ; [0x8002400] = 0x20003d58
        0x080022f6:    f7fffdf7    ....    BL       rt_put_prio ; 0x8001ee8
        0x080022fa:    f8a48002    ....    STRH     r8,[r4,#2]
        0x080022fe:    60a6        .`      STR      r6,[r4,#8]
        0x08002300:    6a31        1j      LDR      r1,[r6,#0x20]
        0x08002302:    60e1        .`      STR      r1,[r4,#0xc]
        0x08002304:    6234        4b      STR      r4,[r6,#0x20]
        0x08002306:    68e4        .h      LDR      r4,[r4,#0xc]
        0x08002308:    e000        ..      B        0x800230c ; rt_tsk_delete + 112
        0x0800230a:    68e4        .h      LDR      r4,[r4,#0xc]
        0x0800230c:    2c00        .,      CMP      r4,#0
        0x0800230e:    d1e2        ..      BNE      0x80022d6 ; rt_tsk_delete + 58
        0x08002310:    6828        (h      LDR      r0,[r5,#0]
        0x08002312:    78c2        .x      LDRB     r2,[r0,#3]
        0x08002314:    eb090182    ....    ADD      r1,r9,r2,LSL #2
        0x08002318:    f8417c04    A..|    STR      r7,[r1,#-4]
        0x0800231c:    6ac1        .j      LDR      r1,[r0,#0x2c]
        0x0800231e:    4839        9H      LDR      r0,[pc,#228] ; [0x8002404] = 0x20000370
        0x08002320:    f7fffb3a    ..:.    BL       rt_free_box ; 0x8001998
        0x08002324:    6828        (h      LDR      r0,[r5,#0]
        0x08002326:    62c7        .b      STR      r7,[r0,#0x2c]
        0x08002328:    f89a1000    ....    LDRB     r1,[r10,#0]
        0x0800232c:    b111        ..      CBZ      r1,0x8002334 ; rt_tsk_delete + 152
        0x0800232e:    2100        .!      MOVS     r1,#0
        0x08002330:    f7feff34    ..4.    BL       dbg_task_notify ; 0x800119c
        0x08002334:    4834        4H      LDR      r0,[pc,#208] ; [0x8002408] = 0x20000228
        0x08002336:    6829        )h      LDR      r1,[r5,#0]
        0x08002338:    f7fffb2e    ....    BL       rt_free_box ; 0x8001998
        0x0800233c:    602f        /`      STR      r7,[r5,#0]
        0x0800233e:    e053        S.      B        0x80023e8 ; rt_tsk_delete + 332
        0x08002340:    4932        2I      LDR      r1,[pc,#200] ; [0x800240c] = 0x8002b10
        0x08002342:    8809        ..      LDRH     r1,[r1,#0]
        0x08002344:    4288        .B      CMP      r0,r1
        0x08002346:    d80d        ..      BHI      0x8002364 ; rt_tsk_delete + 200
        0x08002348:    eb090780    ....    ADD      r7,r9,r0,LSL #2
        0x0800234c:    f8575c04    W..\    LDR      r5,[r7,#-4]
        0x08002350:    b145        E.      CBZ      r5,0x8002364 ; rt_tsk_delete + 200
        0x08002352:    4628        (F      MOV      r0,r5
        0x08002354:    f7fffe24    ..$.    BL       rt_rmv_list ; 0x8001fa0
        0x08002358:    4628        (F      MOV      r0,r5
        0x0800235a:    f7fffe0c    ....    BL       rt_rmv_dly ; 0x8001f76
        0x0800235e:    46b1        .F      MOV      r9,r6
        0x08002360:    6a2c        ,j      LDR      r4,[r5,#0x20]
        0x08002362:    e01d        ..      B        0x80023a0 ; rt_tsk_delete + 260
        0x08002364:    20ff        .       MOVS     r0,#0xff
        0x08002366:    e8bd9ff0    ....    POP      {r4-r12,pc}
        0x0800236a:    6860        `h      LDR      r0,[r4,#4]
        0x0800236c:    b1b8        ..      CBZ      r0,0x800239e ; rt_tsk_delete + 258
        0x0800236e:    4620         F      MOV      r0,r4
        0x08002370:    f7fffb36    ..6.    BL       rt_get_first ; 0x80019e0
        0x08002374:    4606        .F      MOV      r6,r0
        0x08002376:    2100        .!      MOVS     r1,#0
        0x08002378:    f7fffdf6    ....    BL       rt_ret_val ; 0x8001f68
        0x0800237c:    4630        0F      MOV      r0,r6
        0x0800237e:    f7fffdfa    ....    BL       rt_rmv_dly ; 0x8001f76
        0x08002382:    f8869001    ....    STRB     r9,[r6,#1]
        0x08002386:    4631        1F      MOV      r1,r6
        0x08002388:    481d        .H      LDR      r0,[pc,#116] ; [0x8002400] = 0x20003d58
        0x0800238a:    f7fffdad    ....    BL       rt_put_prio ; 0x8001ee8
        0x0800238e:    f8a49002    ....    STRH     r9,[r4,#2]
        0x08002392:    60a6        .`      STR      r6,[r4,#8]
        0x08002394:    6a31        1j      LDR      r1,[r6,#0x20]
        0x08002396:    60e1        .`      STR      r1,[r4,#0xc]
        0x08002398:    6234        4b      STR      r4,[r6,#0x20]
        0x0800239a:    68e4        .h      LDR      r4,[r4,#0xc]
        0x0800239c:    e000        ..      B        0x80023a0 ; rt_tsk_delete + 260
        0x0800239e:    68e4        .h      LDR      r4,[r4,#0xc]
        0x080023a0:    2c00        .,      CMP      r4,#0
        0x080023a2:    d1e2        ..      BNE      0x800236a ; rt_tsk_delete + 206
        0x080023a4:    f8478c04    G...    STR      r8,[r7,#-4]
        0x080023a8:    4644        DF      MOV      r4,r8
        0x080023aa:    4816        .H      LDR      r0,[pc,#88] ; [0x8002404] = 0x20000370
        0x080023ac:    6ae9        .j      LDR      r1,[r5,#0x2c]
        0x080023ae:    f7fffaf3    ....    BL       rt_free_box ; 0x8001998
        0x080023b2:    62ec        .b      STR      r4,[r5,#0x2c]
        0x080023b4:    f89a0000    ....    LDRB     r0,[r10,#0]
        0x080023b8:    b118        ..      CBZ      r0,0x80023c2 ; rt_tsk_delete + 294
        0x080023ba:    2100        .!      MOVS     r1,#0
        0x080023bc:    4628        (F      MOV      r0,r5
        0x080023be:    f7fefeed    ....    BL       dbg_task_notify ; 0x800119c
        0x080023c2:    4629        )F      MOV      r1,r5
        0x080023c4:    4810        .H      LDR      r0,[pc,#64] ; [0x8002408] = 0x20000228
        0x080023c6:    f7fffae7    ....    BL       rt_free_box ; 0x8001998
        0x080023ca:    480d        .H      LDR      r0,[pc,#52] ; [0x8002400] = 0x20003d58
        0x080023cc:    f8db1000    ....    LDR      r1,[r11,#0]
        0x080023d0:    6840        @h      LDR      r0,[r0,#4]
        0x080023d2:    788b        .x      LDRB     r3,[r1,#2]
        0x080023d4:    7882        .x      LDRB     r2,[r0,#2]
        0x080023d6:    429a        .B      CMP      r2,r3
        0x080023d8:    d909        ..      BLS      0x80023ee ; rt_tsk_delete + 338
        0x080023da:    f8819001    ....    STRB     r9,[r1,#1]
        0x080023de:    4808        .H      LDR      r0,[pc,#32] ; [0x8002400] = 0x20003d58
        0x080023e0:    f8db1000    ....    LDR      r1,[r11,#0]
        0x080023e4:    f7fffd80    ....    BL       rt_put_prio ; 0x8001ee8
        0x080023e8:    2000        .       MOVS     r0,#0
        0x080023ea:    f7fffa8b    ....    BL       rt_dispatch ; 0x8001904
        0x080023ee:    2000        .       MOVS     r0,#0
        0x080023f0:    e7b9        ..      B        0x8002366 ; rt_tsk_delete + 202
    $d
        0x080023f2:    0000        ..      DCW    0
        0x080023f4:    200000c8    ...     DCD    536871112
        0x080023f8:    20003cec    .<.     DCD    536886508
        0x080023fc:    200000b4    ...     DCD    536871092
        0x08002400:    20003d58    X=.     DCD    536886616
        0x08002404:    20000370    p..     DCD    536871792
        0x08002408:    20000228    (..     DCD    536871464
        0x0800240c:    08002b10    .+..    DCD    134228752
    $t
    i.rt_tsk_prio
    rt_tsk_prio
        0x08002410:    b570        p.      PUSH     {r4-r6,lr}
        0x08002412:    4d1a        .M      LDR      r5,[pc,#104] ; [0x800247c] = 0x200000b4
        0x08002414:    b180        ..      CBZ      r0,0x8002438 ; rt_tsk_prio + 40
        0x08002416:    4a1a        .J      LDR      r2,[pc,#104] ; [0x8002480] = 0x8002b10
        0x08002418:    8812        ..      LDRH     r2,[r2,#0]
        0x0800241a:    4290        .B      CMP      r0,r2
        0x0800241c:    d81f        ..      BHI      0x800245e ; rt_tsk_prio + 78
        0x0800241e:    4a19        .J      LDR      r2,[pc,#100] ; [0x8002484] = 0x20003cec
        0x08002420:    eb020080    ....    ADD      r0,r2,r0,LSL #2
        0x08002424:    f8504c04    P..L    LDR      r4,[r0,#-4]
        0x08002428:    b1cc        ..      CBZ      r4,0x800245e ; rt_tsk_prio + 78
        0x0800242a:    70a1        .p      STRB     r1,[r4,#2]
        0x0800242c:    f8841024    ..$.    STRB     r1,[r4,#0x24]
        0x08002430:    6828        (h      LDR      r0,[r5,#0]
        0x08002432:    42a0        .B      CMP      r0,r4
        0x08002434:    d005        ..      BEQ      0x8002442 ; rt_tsk_prio + 50
        0x08002436:    e014        ..      B        0x8002462 ; rt_tsk_prio + 82
        0x08002438:    6828        (h      LDR      r0,[r5,#0]
        0x0800243a:    7081        .p      STRB     r1,[r0,#2]
        0x0800243c:    6828        (h      LDR      r0,[r5,#0]
        0x0800243e:    f8801024    ..$.    STRB     r1,[r0,#0x24]
        0x08002442:    4811        .H      LDR      r0,[pc,#68] ; [0x8002488] = 0x20003d58
        0x08002444:    6840        @h      LDR      r0,[r0,#4]
        0x08002446:    7880        .x      LDRB     r0,[r0,#2]
        0x08002448:    4288        .B      CMP      r0,r1
        0x0800244a:    d915        ..      BLS      0x8002478 ; rt_tsk_prio + 104
        0x0800244c:    480e        .H      LDR      r0,[pc,#56] ; [0x8002488] = 0x20003d58
        0x0800244e:    6829        )h      LDR      r1,[r5,#0]
        0x08002450:    f7fffd4a    ..J.    BL       rt_put_prio ; 0x8001ee8
        0x08002454:    6829        )h      LDR      r1,[r5,#0]
        0x08002456:    2001        .       MOVS     r0,#1
        0x08002458:    7048        Hp      STRB     r0,[r1,#1]
        0x0800245a:    2000        .       MOVS     r0,#0
        0x0800245c:    e00a        ..      B        0x8002474 ; rt_tsk_prio + 100
        0x0800245e:    20ff        .       MOVS     r0,#0xff
        0x08002460:    bd70        p.      POP      {r4-r6,pc}
        0x08002462:    4620         F      MOV      r0,r4
        0x08002464:    f7fffd66    ..f.    BL       rt_resort_prio ; 0x8001f34
        0x08002468:    7860        `x      LDRB     r0,[r4,#1]
        0x0800246a:    2801        .(      CMP      r0,#1
        0x0800246c:    d104        ..      BNE      0x8002478 ; rt_tsk_prio + 104
        0x0800246e:    4806        .H      LDR      r0,[pc,#24] ; [0x8002488] = 0x20003d58
        0x08002470:    f7fffab6    ....    BL       rt_get_first ; 0x80019e0
        0x08002474:    f7fffa46    ..F.    BL       rt_dispatch ; 0x8001904
        0x08002478:    2000        .       MOVS     r0,#0
        0x0800247a:    bd70        p.      POP      {r4-r6,pc}
    $d
        0x0800247c:    200000b4    ...     DCD    536871092
        0x08002480:    08002b10    .+..    DCD    134228752
        0x08002484:    20003cec    .<.     DCD    536886508
        0x08002488:    20003d58    X=.     DCD    536886616
    $t
    i.rt_tsk_self
    rt_tsk_self
        0x0800248c:    4802        .H      LDR      r0,[pc,#8] ; [0x8002498] = 0x200000b4
        0x0800248e:    6800        .h      LDR      r0,[r0,#0]
        0x08002490:    2800        .(      CMP      r0,#0
        0x08002492:    d000        ..      BEQ      0x8002496 ; rt_tsk_self + 10
        0x08002494:    78c0        .x      LDRB     r0,[r0,#3]
        0x08002496:    4770        pG      BX       lr
    $d
        0x08002498:    200000b4    ...     DCD    536871092
    $t
    i.shell
    shell
        0x0800249c:    e92d41f0    -..A    PUSH     {r4-r8,lr}
        0x080024a0:    4606        .F      MOV      r6,r0
        0x080024a2:    2500        .%      MOVS     r5,#0
        0x080024a4:    4630        0F      MOV      r0,r6
        0x080024a6:    f7fdff32    ..2.    BL       strlen ; 0x800030e
        0x080024aa:    4607        .F      MOV      r7,r0
        0x080024ac:    b90f        ..      CBNZ     r7,0x80024b2 ; shell + 22
        0x080024ae:    bf00        ..      NOP      
        0x080024b0:    e030        0.      B        0x8002514 ; shell + 120
        0x080024b2:    bf00        ..      NOP      
        0x080024b4:    481d        .H      LDR      r0,[pc,#116] ; [0x800252c] = 0x20000000
        0x080024b6:    6800        .h      LDR      r0,[r0,#0]
        0x080024b8:    b110        ..      CBZ      r0,0x80024c0 ; shell + 36
        0x080024ba:    a01d        ..      ADR      r0,{pc}+0x76 ; 0x8002530
        0x080024bc:    f7fefaaa    ....    BL       __0printf$8 ; 0x8000a14
        0x080024c0:    bf00        ..      NOP      
        0x080024c2:    4630        0F      MOV      r0,r6
        0x080024c4:    f7fff93e    ..>.    BL       parse_cmd ; 0x8001744
        0x080024c8:    491a        .I      LDR      r1,[pc,#104] ; [0x8002534] = 0x200001dc
        0x080024ca:    6808        .h      LDR      r0,[r1,#0]
        0x080024cc:    f7fefe90    ....    BL       get_cmd_index ; 0x80011f0
        0x080024d0:    4604        .F      MOV      r4,r0
        0x080024d2:    1c40        @.      ADDS     r0,r0,#1
        0x080024d4:    b960        `.      CBNZ     r0,0x80024f0 ; shell + 84
        0x080024d6:    bf00        ..      NOP      
        0x080024d8:    4814        .H      LDR      r0,[pc,#80] ; [0x800252c] = 0x20000000
        0x080024da:    6800        .h      LDR      r0,[r0,#0]
        0x080024dc:    b120         .      CBZ      r0,0x80024e8 ; shell + 76
        0x080024de:    4815        .H      LDR      r0,[pc,#84] ; [0x8002534] = 0x200001dc
        0x080024e0:    6801        .h      LDR      r1,[r0,#0]
        0x080024e2:    a015        ..      ADR      r0,{pc}+0x56 ; 0x8002538
        0x080024e4:    f7fefa96    ....    BL       __0printf$8 ; 0x8000a14
        0x080024e8:    bf00        ..      NOP      
        0x080024ea:    f04f35ff    O..5    MOV      r5,#0xffffffff
        0x080024ee:    e011        ..      B        0x8002514 ; shell + 120
        0x080024f0:    eb040144    ..D.    ADD      r1,r4,r4,LSL #1
        0x080024f4:    4a15        .J      LDR      r2,[pc,#84] ; [0x800254c] = 0x2000002c
        0x080024f6:    eb020181    ....    ADD      r1,r2,r1,LSL #2
        0x080024fa:    6848        Hh      LDR      r0,[r1,#4]
        0x080024fc:    4780        .G      BLX      r0
        0x080024fe:    4605        .F      MOV      r5,r0
        0x08002500:    bf00        ..      NOP      
        0x08002502:    480a        .H      LDR      r0,[pc,#40] ; [0x800252c] = 0x20000000
        0x08002504:    6800        .h      LDR      r0,[r0,#0]
        0x08002506:    b118        ..      CBZ      r0,0x8002510 ; shell + 116
        0x08002508:    4629        )F      MOV      r1,r5
        0x0800250a:    a011        ..      ADR      r0,{pc}+0x46 ; 0x8002550
        0x0800250c:    f7fefa82    ....    BL       __0printf$8 ; 0x8000a14
        0x08002510:    bf00        ..      NOP      
        0x08002512:    bf00        ..      NOP      
        0x08002514:    bf00        ..      NOP      
        0x08002516:    4805        .H      LDR      r0,[pc,#20] ; [0x800252c] = 0x20000000
        0x08002518:    6800        .h      LDR      r0,[r0,#0]
        0x0800251a:    b110        ..      CBZ      r0,0x8002522 ; shell + 134
        0x0800251c:    a010        ..      ADR      r0,{pc}+0x44 ; 0x8002560
        0x0800251e:    f7fefa79    ..y.    BL       __0printf$8 ; 0x8000a14
        0x08002522:    bf00        ..      NOP      
        0x08002524:    4628        (F      MOV      r0,r5
        0x08002526:    e8bd81f0    ....    POP      {r4-r8,pc}
    $d
        0x0800252a:    0000        ..      DCW    0
        0x0800252c:    20000000    ...     DCD    536870912
        0x08002530:    0000000a    ....    DCD    10
        0x08002534:    200001dc    ...     DCD    536871388
        0x08002538:    656c6c69    ille    DCD    1701604457
        0x0800253c:    206c6167    gal     DCD    543973735
        0x08002540:    20646d63    cmd     DCD    543452515
        0x08002544:    5d73255b    [%s]    DCD    1567827291
        0x08002548:    00000a20     ...    DCD    2592
        0x0800254c:    2000002c    ,..     DCD    536870956
        0x08002550:    75746572    retu    DCD    1970562418
        0x08002554:    30206e72    rn 0    DCD    807431794
        0x08002558:    0a782578    x%x.    DCD    175646072
        0x0800255c:    00000000    ....    DCD    0
        0x08002560:    6f78780a    .xxo    DCD    1870166026
        0x08002564:    00003e73    s>..    DCD    15987
    $t
    i.sub_cmd_help
    sub_cmd_help
        0x08002568:    b510        ..      PUSH     {r4,lr}
        0x0800256a:    2400        .$      MOVS     r4,#0
        0x0800256c:    e012        ..      B        0x8002594 ; sub_cmd_help + 44
        0x0800256e:    bf00        ..      NOP      
        0x08002570:    480a        .H      LDR      r0,[pc,#40] ; [0x800259c] = 0x20000000
        0x08002572:    6800        .h      LDR      r0,[r0,#0]
        0x08002574:    b160        `.      CBZ      r0,0x8002590 ; sub_cmd_help + 40
        0x08002576:    eb040044    ..D.    ADD      r0,r4,r4,LSL #1
        0x0800257a:    4b09        .K      LDR      r3,[pc,#36] ; [0x80025a0] = 0x20000080
        0x0800257c:    eb030080    ....    ADD      r0,r3,r0,LSL #2
        0x08002580:    6882        .h      LDR      r2,[r0,#8]
        0x08002582:    eb040044    ..D.    ADD      r0,r4,r4,LSL #1
        0x08002586:    f8531020    S. .    LDR      r1,[r3,r0,LSL #2]
        0x0800258a:    a006        ..      ADR      r0,{pc}+0x1a ; 0x80025a4
        0x0800258c:    f7fefa42    ..B.    BL       __0printf$8 ; 0x8000a14
        0x08002590:    bf00        ..      NOP      
        0x08002592:    1c64        d.      ADDS     r4,r4,#1
        0x08002594:    2c00        .,      CMP      r4,#0
        0x08002596:    d0ea        ..      BEQ      0x800256e ; sub_cmd_help + 6
        0x08002598:    2000        .       MOVS     r0,#0
        0x0800259a:    bd10        ..      POP      {r4,pc}
    $d
        0x0800259c:    20000000    ...     DCD    536870912
        0x080025a0:    20000080    ...     DCD    536871040
        0x080025a4:    093a7325    %s:.    DCD    154825509
        0x080025a8:    73250909    ..%s    DCD    1931806985
        0x080025ac:    0000000a    ....    DCD    10
    $t
    i.svcKernelInitialize
    svcKernelInitialize
        0x080025b0:    b510        ..      PUSH     {r4,lr}
        0x080025b2:    4c13        .L      LDR      r4,[pc,#76] ; [0x8002600] = 0x200000ac
        0x080025b4:    7820         x      LDRB     r0,[r4,#0]
        0x080025b6:    b960        `.      CBNZ     r0,0x80025d2 ; svcKernelInitialize + 34
        0x080025b8:    4812        .H      LDR      r0,[pc,#72] ; [0x8002604] = 0x20002b80
        0x080025ba:    0740        @.      LSLS     r0,r0,#29
        0x080025bc:    d105        ..      BNE      0x80025ca ; svcKernelInitialize + 26
        0x080025be:    4812        .H      LDR      r0,[pc,#72] ; [0x8002608] = 0x8002b44
        0x080025c0:    6801        .h      LDR      r1,[r0,#0]
        0x080025c2:    4810        .H      LDR      r0,[pc,#64] ; [0x8002604] = 0x20002b80
        0x080025c4:    f7fffa48    ..H.    BL       rt_init_mem ; 0x8001a58
        0x080025c8:    b108        ..      CBZ      r0,0x80025ce ; svcKernelInitialize + 30
        0x080025ca:    2085        .       MOVS     r0,#0x85
        0x080025cc:    bd10        ..      POP      {r4,pc}
        0x080025ce:    f7fffd3f    ..?.    BL       rt_sys_init ; 0x8002050
        0x080025d2:    490e        .I      LDR      r1,[pc,#56] ; [0x800260c] = 0x200000b4
        0x080025d4:    20ff        .       MOVS     r0,#0xff
        0x080025d6:    6809        .h      LDR      r1,[r1,#0]
        0x080025d8:    7088        .p      STRB     r0,[r1,#2]
        0x080025da:    7820         x      LDRB     r0,[r4,#0]
        0x080025dc:    b958        X.      CBNZ     r0,0x80025f6 ; svcKernelInitialize + 70
        0x080025de:    2100        .!      MOVS     r1,#0
        0x080025e0:    480b        .H      LDR      r0,[pc,#44] ; [0x8002610] = 0x8002b5c
        0x080025e2:    f000f841    ..A.    BL       svcMessageCreate ; 0x8002668
        0x080025e6:    490b        .I      LDR      r1,[pc,#44] ; [0x8002614] = 0x20000090
        0x080025e8:    6008        .`      STR      r0,[r1,#0]
        0x080025ea:    2100        .!      MOVS     r1,#0
        0x080025ec:    480a        .H      LDR      r0,[pc,#40] ; [0x8002618] = 0x8002b4c
        0x080025ee:    f000f885    ....    BL       svcThreadCreate ; 0x80026fc
        0x080025f2:    490a        .I      LDR      r1,[pc,#40] ; [0x800261c] = 0x2000008c
        0x080025f4:    6008        .`      STR      r0,[r1,#0]
        0x080025f6:    2001        .       MOVS     r0,#1
        0x080025f8:    7020         p      STRB     r0,[r4,#0]
        0x080025fa:    2000        .       MOVS     r0,#0
        0x080025fc:    7060        `p      STRB     r0,[r4,#1]
        0x080025fe:    bd10        ..      POP      {r4,pc}
    $d
        0x08002600:    200000ac    ...     DCD    536871084
        0x08002604:    20002b80    .+.     DCD    536882048
        0x08002608:    08002b44    D+..    DCD    134228804
        0x0800260c:    200000b4    ...     DCD    536871092
        0x08002610:    08002b5c    \+..    DCD    134228828
        0x08002614:    20000090    ...     DCD    536871056
        0x08002618:    08002b4c    L+..    DCD    134228812
        0x0800261c:    2000008c    ...     DCD    536871052
    $t
    i.svcKernelStart
    svcKernelStart
        0x08002620:    b570        p.      PUSH     {r4-r6,lr}
        0x08002622:    4d0f        .M      LDR      r5,[pc,#60] ; [0x8002660] = 0x200000ac
        0x08002624:    7868        hx      LDRB     r0,[r5,#1]
        0x08002626:    b108        ..      CBZ      r0,0x800262c ; svcKernelStart + 12
        0x08002628:    2000        .       MOVS     r0,#0
        0x0800262a:    bd70        p.      POP      {r4-r6,pc}
        0x0800262c:    4c0d        .L      LDR      r4,[pc,#52] ; [0x8002664] = 0x200000b4
        0x0800262e:    6820         h      LDR      r0,[r4,#0]
        0x08002630:    f8901024    ..$.    LDRB     r1,[r0,#0x24]
        0x08002634:    2000        .       MOVS     r0,#0
        0x08002636:    f7fffeeb    ....    BL       rt_tsk_prio ; 0x8002410
        0x0800263a:    6820         h      LDR      r0,[r4,#0]
        0x0800263c:    78c1        .x      LDRB     r1,[r0,#3]
        0x0800263e:    29ff        .)      CMP      r1,#0xff
        0x08002640:    d103        ..      BNE      0x800264a ; svcKernelStart + 42
        0x08002642:    6a81        .j      LDR      r1,[r0,#0x28]
        0x08002644:    3120         1      ADDS     r1,r1,#0x20
        0x08002646:    f3818809    ....    MSR      PSP,r1
        0x0800264a:    6861        ah      LDR      r1,[r4,#4]
        0x0800264c:    b911        ..      CBNZ     r1,0x8002654 ; svcKernelStart + 52
        0x0800264e:    6060        ``      STR      r0,[r4,#4]
        0x08002650:    2000        .       MOVS     r0,#0
        0x08002652:    6020         `      STR      r0,[r4,#0]
        0x08002654:    f7fffd62    ..b.    BL       rt_sys_start ; 0x800211c
        0x08002658:    2001        .       MOVS     r0,#1
        0x0800265a:    7068        hp      STRB     r0,[r5,#1]
        0x0800265c:    e7e4        ..      B        0x8002628 ; svcKernelStart + 8
    $d
        0x0800265e:    0000        ..      DCW    0
        0x08002660:    200000ac    ...     DCD    536871084
        0x08002664:    200000b4    ...     DCD    536871092
    $t
    i.svcMessageCreate
    svcMessageCreate
        0x08002668:    b510        ..      PUSH     {r4,lr}
        0x0800266a:    0004        ..      MOVS     r4,r0
        0x0800266c:    d005        ..      BEQ      0x800267a ; svcMessageCreate + 18
        0x0800266e:    6821        !h      LDR      r1,[r4,#0]
        0x08002670:    b119        ..      CBZ      r1,0x800267a ; svcMessageCreate + 18
        0x08002672:    6860        `h      LDR      r0,[r4,#4]
        0x08002674:    b108        ..      CBZ      r0,0x800267a ; svcMessageCreate + 18
        0x08002676:    7802        .x      LDRB     r2,[r0,#0]
        0x08002678:    b10a        ..      CBZ      r2,0x800267e ; svcMessageCreate + 22
        0x0800267a:    2000        .       MOVS     r0,#0
        0x0800267c:    bd10        ..      POP      {r4,pc}
        0x0800267e:    0089        ..      LSLS     r1,r1,#2
        0x08002680:    3110        .1      ADDS     r1,r1,#0x10
        0x08002682:    b289        ..      UXTH     r1,r1
        0x08002684:    f7fffa46    ..F.    BL       rt_mbx_init ; 0x8001b14
        0x08002688:    6860        `h      LDR      r0,[r4,#4]
        0x0800268a:    bd10        ..      POP      {r4,pc}
    i.svcMessageGet
    svcMessageGet
        0x0800268c:    b53e        >.      PUSH     {r1-r5,lr}
        0x0800268e:    0004        ..      MOVS     r4,r0
        0x08002690:    460d        .F      MOV      r5,r1
        0x08002692:    f04f0080    O...    MOV      r0,#0x80
        0x08002696:    d012        ..      BEQ      0x80026be ; svcMessageGet + 50
        0x08002698:    7821        !x      LDRB     r1,[r4,#0]
        0x0800269a:    2901        .)      CMP      r1,#1
        0x0800269c:    d10f        ..      BNE      0x80026be ; svcMessageGet + 50
        0x0800269e:    4628        (F      MOV      r0,r5
        0x080026a0:    f7fffb64    ..d.    BL       rt_ms2tick ; 0x8001d6c
        0x080026a4:    b282        ..      UXTH     r2,r0
        0x080026a6:    4620         F      MOV      r0,r4
        0x080026a8:    a901        ..      ADD      r1,sp,#4
        0x080026aa:    f7fffb05    ....    BL       rt_mbx_wait ; 0x8001cb8
        0x080026ae:    2801        .(      CMP      r0,#1
        0x080026b0:    d001        ..      BEQ      0x80026b6 ; svcMessageGet + 42
        0x080026b2:    2010        .       MOVS     r0,#0x10
        0x080026b4:    e003        ..      B        0x80026be ; svcMessageGet + 50
        0x080026b6:    b10d        ..      CBZ      r5,0x80026bc ; svcMessageGet + 48
        0x080026b8:    2040        @       MOVS     r0,#0x40
        0x080026ba:    e000        ..      B        0x80026be ; svcMessageGet + 50
        0x080026bc:    2000        .       MOVS     r0,#0
        0x080026be:    e9dd1201    ....    LDRD     r1,r2,[sp,#4]
        0x080026c2:    b003        ..      ADD      sp,sp,#0xc
        0x080026c4:    bd30        0.      POP      {r4,r5,pc}
    i.svcMessagePut
    svcMessagePut
        0x080026c6:    b570        p.      PUSH     {r4-r6,lr}
        0x080026c8:    460e        .F      MOV      r6,r1
        0x080026ca:    0005        ..      MOVS     r5,r0
        0x080026cc:    4614        .F      MOV      r4,r2
        0x080026ce:    d002        ..      BEQ      0x80026d6 ; svcMessagePut + 16
        0x080026d0:    7828        (x      LDRB     r0,[r5,#0]
        0x080026d2:    2801        .(      CMP      r0,#1
        0x080026d4:    d001        ..      BEQ      0x80026da ; svcMessagePut + 20
        0x080026d6:    2080        .       MOVS     r0,#0x80
        0x080026d8:    bd70        p.      POP      {r4-r6,pc}
        0x080026da:    4610        .F      MOV      r0,r2
        0x080026dc:    f7fffb46    ..F.    BL       rt_ms2tick ; 0x8001d6c
        0x080026e0:    b282        ..      UXTH     r2,r0
        0x080026e2:    4631        1F      MOV      r1,r6
        0x080026e4:    4628        (F      MOV      r0,r5
        0x080026e6:    f7fffa9b    ....    BL       rt_mbx_send ; 0x8001c20
        0x080026ea:    2801        .(      CMP      r0,#1
        0x080026ec:    d001        ..      BEQ      0x80026f2 ; svcMessagePut + 44
        0x080026ee:    2000        .       MOVS     r0,#0
        0x080026f0:    bd70        p.      POP      {r4-r6,pc}
        0x080026f2:    b10c        ..      CBZ      r4,0x80026f8 ; svcMessagePut + 50
        0x080026f4:    20c1        .       MOVS     r0,#0xc1
        0x080026f6:    bd70        p.      POP      {r4-r6,pc}
        0x080026f8:    2081        .       MOVS     r0,#0x81
        0x080026fa:    bd70        p.      POP      {r4-r6,pc}
    i.svcThreadCreate
    svcThreadCreate
        0x080026fc:    b570        p.      PUSH     {r4-r6,lr}
        0x080026fe:    460e        .F      MOV      r6,r1
        0x08002700:    0004        ..      MOVS     r4,r0
        0x08002702:    d02b        +.      BEQ      0x800275c ; svcThreadCreate + 96
        0x08002704:    6820         h      LDR      r0,[r4,#0]
        0x08002706:    b348        H.      CBZ      r0,0x800275c ; svcThreadCreate + 96
        0x08002708:    f9b40004    ....    LDRSH    r0,[r4,#4]
        0x0800270c:    f1100f03    ....    CMN      r0,#3
        0x08002710:    db24        $.      BLT      0x800275c ; svcThreadCreate + 96
        0x08002712:    2803        .(      CMP      r0,#3
        0x08002714:    dc22        ".      BGT      0x800275c ; svcThreadCreate + 96
        0x08002716:    68e1        .h      LDR      r1,[r4,#0xc]
        0x08002718:    b129        ).      CBZ      r1,0x8002726 ; svcThreadCreate + 42
        0x0800271a:    4811        .H      LDR      r0,[pc,#68] ; [0x8002760] = 0x20002b80
        0x0800271c:    f7fff851    ..Q.    BL       rt_alloc_mem ; 0x80017c2
        0x08002720:    0005        ..      MOVS     r5,r0
        0x08002722:    d01b        ..      BEQ      0x800275c ; svcThreadCreate + 96
        0x08002724:    e000        ..      B        0x8002728 ; svcThreadCreate + 44
        0x08002726:    2500        .%      MOVS     r5,#0
        0x08002728:    f9b40004    ....    LDRSH    r0,[r4,#4]
        0x0800272c:    68e1        .h      LDR      r1,[r4,#0xc]
        0x0800272e:    1d00        ..      ADDS     r0,r0,#4
        0x08002730:    ea402101    @..!    ORR      r1,r0,r1,LSL #8
        0x08002734:    4633        3F      MOV      r3,r6
        0x08002736:    462a        *F      MOV      r2,r5
        0x08002738:    6820         h      LDR      r0,[r4,#0]
        0x0800273a:    f7fffd6f    ..o.    BL       rt_tsk_create ; 0x800221c
        0x0800273e:    b140        @.      CBZ      r0,0x8002752 ; svcThreadCreate + 86
        0x08002740:    4908        .I      LDR      r1,[pc,#32] ; [0x8002764] = 0x20003cec
        0x08002742:    eb010080    ....    ADD      r0,r1,r0,LSL #2
        0x08002746:    4908        .I      LDR      r1,[pc,#32] ; [0x8002768] = 0x8001675
        0x08002748:    f8500c04    P...    LDR      r0,[r0,#-4]
        0x0800274c:    6a82        .j      LDR      r2,[r0,#0x28]
        0x0800274e:    6351        Qc      STR      r1,[r2,#0x34]
        0x08002750:    bd70        p.      POP      {r4-r6,pc}
        0x08002752:    b11d        ..      CBZ      r5,0x800275c ; svcThreadCreate + 96
        0x08002754:    4629        )F      MOV      r1,r5
        0x08002756:    4802        .H      LDR      r0,[pc,#8] ; [0x8002760] = 0x20002b80
        0x08002758:    f7fff92e    ....    BL       rt_free_mem ; 0x80019b8
        0x0800275c:    2000        .       MOVS     r0,#0
        0x0800275e:    bd70        p.      POP      {r4-r6,pc}
    $d
        0x08002760:    20002b80    .+.     DCD    536882048
        0x08002764:    20003cec    .<.     DCD    536886508
        0x08002768:    08001675    u...    DCD    134223477
    $t
    i.svcThreadGetId
    svcThreadGetId
        0x0800276c:    b510        ..      PUSH     {r4,lr}
        0x0800276e:    f7fffe8d    ....    BL       rt_tsk_self ; 0x800248c
        0x08002772:    2800        .(      CMP      r0,#0
        0x08002774:    d004        ..      BEQ      0x8002780 ; svcThreadGetId + 20
        0x08002776:    4903        .I      LDR      r1,[pc,#12] ; [0x8002784] = 0x20003cec
        0x08002778:    eb010080    ....    ADD      r0,r1,r0,LSL #2
        0x0800277c:    f8500c04    P...    LDR      r0,[r0,#-4]
        0x08002780:    bd10        ..      POP      {r4,pc}
    $d
        0x08002782:    0000        ..      DCW    0
        0x08002784:    20003cec    .<.     DCD    536886508
    $t
    i.svcThreadTerminate
    svcThreadTerminate
        0x08002788:    b510        ..      PUSH     {r4,lr}
        0x0800278a:    f7fffd23    ..#.    BL       rt_tid2ptcb ; 0x80021d4
        0x0800278e:    b118        ..      CBZ      r0,0x8002798 ; svcThreadTerminate + 16
        0x08002790:    8cc1        ..      LDRH     r1,[r0,#0x26]
        0x08002792:    b119        ..      CBZ      r1,0x800279c ; svcThreadTerminate + 20
        0x08002794:    6ac4        .j      LDR      r4,[r0,#0x2c]
        0x08002796:    e002        ..      B        0x800279e ; svcThreadTerminate + 22
        0x08002798:    2080        .       MOVS     r0,#0x80
        0x0800279a:    bd10        ..      POP      {r4,pc}
        0x0800279c:    2400        .$      MOVS     r4,#0
        0x0800279e:    78c0        .x      LDRB     r0,[r0,#3]
        0x080027a0:    f7fffd7c    ..|.    BL       rt_tsk_delete ; 0x800229c
        0x080027a4:    28ff        .(      CMP      r0,#0xff
        0x080027a6:    d006        ..      BEQ      0x80027b6 ; svcThreadTerminate + 46
        0x080027a8:    b11c        ..      CBZ      r4,0x80027b2 ; svcThreadTerminate + 42
        0x080027aa:    4621        !F      MOV      r1,r4
        0x080027ac:    4803        .H      LDR      r0,[pc,#12] ; [0x80027bc] = 0x20002b80
        0x080027ae:    f7fff903    ....    BL       rt_free_mem ; 0x80019b8
        0x080027b2:    2000        .       MOVS     r0,#0
        0x080027b4:    bd10        ..      POP      {r4,pc}
        0x080027b6:    2081        .       MOVS     r0,#0x81
        0x080027b8:    bd10        ..      POP      {r4,pc}
    $d
        0x080027ba:    0000        ..      DCW    0
        0x080027bc:    20002b80    .+.     DCD    536882048
    $t
    i.svcTimerCall
    svcTimerCall
        0x080027c0:    b510        ..      PUSH     {r4,lr}
        0x080027c2:    f7fff921    ..!.    BL       rt_id2obj ; 0x8001a08
        0x080027c6:    b120         .      CBZ      r0,0x80027d2 ; svcTimerCall + 18
        0x080027c8:    6941        Ai      LDR      r1,[r0,#0x14]
        0x080027ca:    680a        .h      LDR      r2,[r1,#0]
        0x080027cc:    6901        .i      LDR      r1,[r0,#0x10]
        0x080027ce:    4610        .F      MOV      r0,r2
        0x080027d0:    bd10        ..      POP      {r4,pc}
        0x080027d2:    2000        .       MOVS     r0,#0
        0x080027d4:    4601        .F      MOV      r1,r0
        0x080027d6:    bd10        ..      POP      {r4,pc}
    i.sysMailAlloc
    sysMailAlloc
        0x080027d8:    e92d41f0    -..A    PUSH     {r4-r8,lr}
        0x080027dc:    4698        .F      MOV      r8,r3
        0x080027de:    460e        .F      MOV      r6,r1
        0x080027e0:    2800        .(      CMP      r0,#0
        0x080027e2:    d006        ..      BEQ      0x80027f2 ; sysMailAlloc + 26
        0x080027e4:    e9d04700    ...G    LDRD     r4,r7,[r0,#0]
        0x080027e8:    b117        ..      CBZ      r7,0x80027f0 ; sysMailAlloc + 24
        0x080027ea:    b10c        ..      CBZ      r4,0x80027f0 ; sysMailAlloc + 24
        0x080027ec:    b11a        ..      CBZ      r2,0x80027f6 ; sysMailAlloc + 30
        0x080027ee:    b116        ..      CBZ      r6,0x80027f6 ; sysMailAlloc + 30
        0x080027f0:    2000        .       MOVS     r0,#0
        0x080027f2:    e8bd81f0    ....    POP      {r4-r8,pc}
        0x080027f6:    4638        8F      MOV      r0,r7
        0x080027f8:    f7feffd6    ....    BL       rt_alloc_box ; 0x80017a8
        0x080027fc:    4605        .F      MOV      r5,r0
        0x080027fe:    f1b80f00    ....    CMP      r8,#0
        0x08002802:    d003        ..      BEQ      0x800280c ; sysMailAlloc + 52
        0x08002804:    4629        )F      MOV      r1,r5
        0x08002806:    4638        8F      MOV      r0,r7
        0x08002808:    f7fff83a    ..:.    BL       rt_clr_box ; 0x8001880
        0x0800280c:    b9c5        ..      CBNZ     r5,0x8002840 ; sysMailAlloc + 104
        0x0800280e:    b1be        ..      CBZ      r6,0x8002840 ; sysMailAlloc + 104
        0x08002810:    480c        .H      LDR      r0,[pc,#48] ; [0x8002844] = 0x200000b4
        0x08002812:    6861        ah      LDR      r1,[r4,#4]
        0x08002814:    2900        .)      CMP      r1,#0
        0x08002816:    6801        .h      LDR      r1,[r0,#0]
        0x08002818:    d003        ..      BEQ      0x8002822 ; sysMailAlloc + 74
        0x0800281a:    4620         F      MOV      r0,r4
        0x0800281c:    f7fffb64    ..d.    BL       rt_put_prio ; 0x8001ee8
        0x08002820:    e007        ..      B        0x8002832 ; sysMailAlloc + 90
        0x08002822:    6061        a`      STR      r1,[r4,#4]
        0x08002824:    6802        .h      LDR      r2,[r0,#0]
        0x08002826:    2100        .!      MOVS     r1,#0
        0x08002828:    6051        Q`      STR      r1,[r2,#4]
        0x0800282a:    6800        .h      LDR      r0,[r0,#0]
        0x0800282c:    6084        .`      STR      r4,[r0,#8]
        0x0800282e:    2003        .       MOVS     r0,#3
        0x08002830:    7060        `p      STRB     r0,[r4,#1]
        0x08002832:    4630        0F      MOV      r0,r6
        0x08002834:    f7fffa9a    ....    BL       rt_ms2tick ; 0x8001d6c
        0x08002838:    b280        ..      UXTH     r0,r0
        0x0800283a:    2108        .!      MOVS     r1,#8
        0x0800283c:    f7feffe0    ....    BL       rt_block ; 0x8001800
        0x08002840:    4628        (F      MOV      r0,r5
        0x08002842:    e7d6        ..      B        0x80027f2 ; sysMailAlloc + 26
    $d
        0x08002844:    200000b4    ...     DCD    536871092
    $t
    i.sysTimerTick
    sysTimerTick
        0x08002848:    e92d41f0    -..A    PUSH     {r4-r8,lr}
        0x0800284c:    4e13        .N      LDR      r6,[pc,#76] ; [0x800289c] = 0x200000ac
        0x0800284e:    6874        th      LDR      r4,[r6,#4]
        0x08002850:    2c00        .,      CMP      r4,#0
        0x08002852:    d01c        ..      BEQ      0x800288e ; sysTimerTick + 70
        0x08002854:    68a0        .h      LDR      r0,[r4,#8]
        0x08002856:    4f12        .O      LDR      r7,[pc,#72] ; [0x80028a0] = 0x20000090
        0x08002858:    1e40        @.      SUBS     r0,r0,#1
        0x0800285a:    f04f0801    O...    MOV      r8,#1
        0x0800285e:    60a0        .`      STR      r0,[r4,#8]
        0x08002860:    e012        ..      B        0x8002888 ; sysTimerTick + 64
        0x08002862:    4625        %F      MOV      r5,r4
        0x08002864:    6824        $h      LDR      r4,[r4,#0]
        0x08002866:    6074        t`      STR      r4,[r6,#4]
        0x08002868:    2200        ."      MOVS     r2,#0
        0x0800286a:    4629        )F      MOV      r1,r5
        0x0800286c:    6838        8h      LDR      r0,[r7,#0]
        0x0800286e:    f7fefdf8    ....    BL       isrMessagePut ; 0x8001462
        0x08002872:    b110        ..      CBZ      r0,0x800287a ; sysTimerTick + 50
        0x08002874:    2004        .       MOVS     r0,#4
        0x08002876:    f7feff25    ..%.    BL       os_error ; 0x80016c4
        0x0800287a:    7968        hy      LDRB     r0,[r5,#5]
        0x0800287c:    2801        .(      CMP      r0,#1
        0x0800287e:    d008        ..      BEQ      0x8002892 ; sysTimerTick + 74
        0x08002880:    f8858004    ....    STRB     r8,[r5,#4]
        0x08002884:    2c00        .,      CMP      r4,#0
        0x08002886:    d002        ..      BEQ      0x800288e ; sysTimerTick + 70
        0x08002888:    68a0        .h      LDR      r0,[r4,#8]
        0x0800288a:    2800        .(      CMP      r0,#0
        0x0800288c:    d0e9        ..      BEQ      0x8002862 ; sysTimerTick + 26
        0x0800288e:    e8bd81f0    ....    POP      {r4-r8,pc}
        0x08002892:    4628        (F      MOV      r0,r5
        0x08002894:    68e9        .h      LDR      r1,[r5,#0xc]
        0x08002896:    f7fffca7    ....    BL       rt_timer_insert ; 0x80021e8
        0x0800289a:    e7f3        ..      B        0x8002884 ; sysTimerTick + 60
    $d
        0x0800289c:    200000ac    ...     DCD    536871084
        0x080028a0:    20000090    ...     DCD    536871056
    $t
    i.systest
    systest
        0x080028a4:    e92d41f0    -..A    PUSH     {r4-r8,lr}
        0x080028a8:    4607        .F      MOV      r7,r0
        0x080028aa:    460c        .F      MOV      r4,r1
        0x080028ac:    6860        `h      LDR      r0,[r4,#4]
        0x080028ae:    f7fefcb7    ....    BL       get_cmd_index ; 0x8001220
        0x080028b2:    4605        .F      MOV      r5,r0
        0x080028b4:    1c40        @.      ADDS     r0,r0,#1
        0x080028b6:    b970        p.      CBNZ     r0,0x80028d6 ; systest + 50
        0x080028b8:    bf00        ..      NOP      
        0x080028ba:    480c        .H      LDR      r0,[pc,#48] ; [0x80028ec] = 0x20000000
        0x080028bc:    6800        .h      LDR      r0,[r0,#0]
        0x080028be:    b118        ..      CBZ      r0,0x80028c8 ; systest + 36
        0x080028c0:    a00b        ..      ADR      r0,{pc}+0x30 ; 0x80028f0
        0x080028c2:    6861        ah      LDR      r1,[r4,#4]
        0x080028c4:    f7fef8a6    ....    BL       __0printf$8 ; 0x8000a14
        0x080028c8:    bf00        ..      NOP      
        0x080028ca:    f7fffe4d    ..M.    BL       sub_cmd_help ; 0x8002568
        0x080028ce:    f04f30ff    O..0    MOV      r0,#0xffffffff
        0x080028d2:    e8bd81f0    ....    POP      {r4-r8,pc}
        0x080028d6:    eb050145    ..E.    ADD      r1,r5,r5,LSL #1
        0x080028da:    4a0b        .J      LDR      r2,[pc,#44] ; [0x8002908] = 0x20000080
        0x080028dc:    eb020181    ....    ADD      r1,r2,r1,LSL #2
        0x080028e0:    6848        Hh      LDR      r0,[r1,#4]
        0x080028e2:    4780        .G      BLX      r0
        0x080028e4:    4606        .F      MOV      r6,r0
        0x080028e6:    4630        0F      MOV      r0,r6
        0x080028e8:    e7f3        ..      B        0x80028d2 ; systest + 46
    $d
        0x080028ea:    0000        ..      DCW    0
        0x080028ec:    20000000    ...     DCD    536870912
        0x080028f0:    656c6c69    ille    DCD    1701604457
        0x080028f4:    206c6167    gal     DCD    543973735
        0x080028f8:    2d627573    sub-    DCD    761427315
        0x080028fc:    20646d63    cmd     DCD    543452515
        0x08002900:    5d73255b    [%s]    DCD    1567827291
        0x08002904:    0000000a    ....    DCD    10
        0x08002908:    20000080    ...     DCD    536871040
    $t
    i.test_gpio_all
    test_gpio_all
        0x0800290c:    e92d41f0    -..A    PUSH     {r4-r8,lr}
        0x08002910:    bf00        ..      NOP      
        0x08002912:    484f        OH      LDR      r0,[pc,#316] ; [0x8002a50] = 0x20000000
        0x08002914:    6800        .h      LDR      r0,[r0,#0]
        0x08002916:    b120         .      CBZ      r0,0x8002922 ; test_gpio_all + 22
        0x08002918:    220e        ."      MOVS     r2,#0xe
        0x0800291a:    494e        NI      LDR      r1,[pc,#312] ; [0x8002a54] = 0x8002b00
        0x0800291c:    a04e        N.      ADR      r0,{pc}+0x13c ; 0x8002a58
        0x0800291e:    f7fef879    ..y.    BL       __0printf$8 ; 0x8000a14
        0x08002922:    bf00        ..      NOP      
        0x08002924:    4950        PI      LDR      r1,[pc,#320] ; [0x8002a68] = 0x200001dc
        0x08002926:    2200        ."      MOVS     r2,#0
        0x08002928:    6888        .h      LDR      r0,[r1,#8]
        0x0800292a:    4611        .F      MOV      r1,r2
        0x0800292c:    f7fdfd04    ....    BL       strtol ; 0x8000338
        0x08002930:    4604        .F      MOV      r4,r0
        0x08002932:    bf00        ..      NOP      
        0x08002934:    4846        FH      LDR      r0,[pc,#280] ; [0x8002a50] = 0x20000000
        0x08002936:    6800        .h      LDR      r0,[r0,#0]
        0x08002938:    b118        ..      CBZ      r0,0x8002942 ; test_gpio_all + 54
        0x0800293a:    4621        !F      MOV      r1,r4
        0x0800293c:    a04b        K.      ADR      r0,{pc}+0x130 ; 0x8002a6c
        0x0800293e:    f7fef869    ..i.    BL       __0printf$8 ; 0x8000a14
        0x08002942:    bf00        ..      NOP      
        0x08002944:    b124        $.      CBZ      r4,0x8002950 ; test_gpio_all + 68
        0x08002946:    2c01        .,      CMP      r4,#1
        0x08002948:    d02d        -.      BEQ      0x80029a6 ; test_gpio_all + 154
        0x0800294a:    2c0a        .,      CMP      r4,#0xa
        0x0800294c:    d17a        z.      BNE      0x8002a44 ; test_gpio_all + 312
        0x0800294e:    e051        Q.      B        0x80029f4 ; test_gpio_all + 232
        0x08002950:    4945        EI      LDR      r1,[pc,#276] ; [0x8002a68] = 0x200001dc
        0x08002952:    2200        ."      MOVS     r2,#0
        0x08002954:    68c8        .h      LDR      r0,[r1,#0xc]
        0x08002956:    4611        .F      MOV      r1,r2
        0x08002958:    f7fdfcee    ....    BL       strtol ; 0x8000338
        0x0800295c:    4607        .F      MOV      r7,r0
        0x0800295e:    4942        BI      LDR      r1,[pc,#264] ; [0x8002a68] = 0x200001dc
        0x08002960:    2200        ."      MOVS     r2,#0
        0x08002962:    6908        .i      LDR      r0,[r1,#0x10]
        0x08002964:    4611        .F      MOV      r1,r2
        0x08002966:    f7fdfce7    ....    BL       strtol ; 0x8000338
        0x0800296a:    4606        .F      MOV      r6,r0
        0x0800296c:    493e        >I      LDR      r1,[pc,#248] ; [0x8002a68] = 0x200001dc
        0x0800296e:    2200        ."      MOVS     r2,#0
        0x08002970:    6948        Hi      LDR      r0,[r1,#0x14]
        0x08002972:    4611        .F      MOV      r1,r2
        0x08002974:    f7fdfce0    ....    BL       strtol ; 0x8000338
        0x08002978:    4605        .F      MOV      r5,r0
        0x0800297a:    bf00        ..      NOP      
        0x0800297c:    4834        4H      LDR      r0,[pc,#208] ; [0x8002a50] = 0x20000000
        0x0800297e:    6800        .h      LDR      r0,[r0,#0]
        0x08002980:    b128        (.      CBZ      r0,0x800298e ; test_gpio_all + 130
        0x08002982:    462b        +F      MOV      r3,r5
        0x08002984:    4632        2F      MOV      r2,r6
        0x08002986:    4639        9F      MOV      r1,r7
        0x08002988:    a03b        ;.      ADR      r0,{pc}+0xf0 ; 0x8002a78
        0x0800298a:    f7fef843    ..C.    BL       __0printf$8 ; 0x8000a14
        0x0800298e:    bf00        ..      NOP      
        0x08002990:    2210        ."      MOVS     r2,#0x10
        0x08002992:    4631        1F      MOV      r1,r6
        0x08002994:    4638        8F      MOV      r0,r7
        0x08002996:    f7fefc5b    ..[.    BL       gpio_init ; 0x8001250
        0x0800299a:    462a        *F      MOV      r2,r5
        0x0800299c:    4631        1F      MOV      r1,r6
        0x0800299e:    4638        8F      MOV      r0,r7
        0x080029a0:    f7fefcf4    ....    BL       gpio_write ; 0x800138c
        0x080029a4:    e04f        O.      B        0x8002a46 ; test_gpio_all + 314
        0x080029a6:    2210        ."      MOVS     r2,#0x10
        0x080029a8:    2109        .!      MOVS     r1,#9
        0x080029aa:    200b        .       MOVS     r0,#0xb
        0x080029ac:    f7fefc50    ..P.    BL       gpio_init ; 0x8001250
        0x080029b0:    492d        -I      LDR      r1,[pc,#180] ; [0x8002a68] = 0x200001dc
        0x080029b2:    2200        ."      MOVS     r2,#0
        0x080029b4:    68c8        .h      LDR      r0,[r1,#0xc]
        0x080029b6:    4611        .F      MOV      r1,r2
        0x080029b8:    f7fdfcbe    ....    BL       strtol ; 0x8000338
        0x080029bc:    4680        .F      MOV      r8,r0
        0x080029be:    bf00        ..      NOP      
        0x080029c0:    4823        #H      LDR      r0,[pc,#140] ; [0x8002a50] = 0x20000000
        0x080029c2:    6800        .h      LDR      r0,[r0,#0]
        0x080029c4:    b118        ..      CBZ      r0,0x80029ce ; test_gpio_all + 194
        0x080029c6:    4641        AF      MOV      r1,r8
        0x080029c8:    a033        3.      ADR      r0,{pc}+0xd0 ; 0x8002a98
        0x080029ca:    f7fef823    ..#.    BL       __0printf$8 ; 0x8000a14
        0x080029ce:    bf00        ..      NOP      
        0x080029d0:    e00f        ..      B        0x80029f2 ; test_gpio_all + 230
        0x080029d2:    2200        ."      MOVS     r2,#0
        0x080029d4:    2109        .!      MOVS     r1,#9
        0x080029d6:    200b        .       MOVS     r0,#0xb
        0x080029d8:    f7fefcd8    ....    BL       gpio_write ; 0x800138c
        0x080029dc:    4640        @F      MOV      r0,r8
        0x080029de:    f7fefd99    ....    BL       mdelay ; 0x8001514
        0x080029e2:    2201        ."      MOVS     r2,#1
        0x080029e4:    2109        .!      MOVS     r1,#9
        0x080029e6:    200b        .       MOVS     r0,#0xb
        0x080029e8:    f7fefcd0    ....    BL       gpio_write ; 0x800138c
        0x080029ec:    4640        @F      MOV      r0,r8
        0x080029ee:    f7fefd91    ....    BL       mdelay ; 0x8001514
        0x080029f2:    e7ee        ..      B        0x80029d2 ; test_gpio_all + 198
        0x080029f4:    491c        .I      LDR      r1,[pc,#112] ; [0x8002a68] = 0x200001dc
        0x080029f6:    2200        ."      MOVS     r2,#0
        0x080029f8:    68c8        .h      LDR      r0,[r1,#0xc]
        0x080029fa:    4611        .F      MOV      r1,r2
        0x080029fc:    f7fdfc9c    ....    BL       strtol ; 0x8000338
        0x08002a00:    4607        .F      MOV      r7,r0
        0x08002a02:    4919        .I      LDR      r1,[pc,#100] ; [0x8002a68] = 0x200001dc
        0x08002a04:    2200        ."      MOVS     r2,#0
        0x08002a06:    6908        .i      LDR      r0,[r1,#0x10]
        0x08002a08:    4611        .F      MOV      r1,r2
        0x08002a0a:    f7fdfc95    ....    BL       strtol ; 0x8000338
        0x08002a0e:    4606        .F      MOV      r6,r0
        0x08002a10:    bf00        ..      NOP      
        0x08002a12:    480f        .H      LDR      r0,[pc,#60] ; [0x8002a50] = 0x20000000
        0x08002a14:    6800        .h      LDR      r0,[r0,#0]
        0x08002a16:    b120         .      CBZ      r0,0x8002a22 ; test_gpio_all + 278
        0x08002a18:    4632        2F      MOV      r2,r6
        0x08002a1a:    4639        9F      MOV      r1,r7
        0x08002a1c:    a021        !.      ADR      r0,{pc}+0x88 ; 0x8002aa4
        0x08002a1e:    f7fdfff9    ....    BL       __0printf$8 ; 0x8000a14
        0x08002a22:    bf00        ..      NOP      
        0x08002a24:    4631        1F      MOV      r1,r6
        0x08002a26:    4638        8F      MOV      r0,r7
        0x08002a28:    f7fefc6a    ..j.    BL       gpio_read ; 0x8001300
        0x08002a2c:    4605        .F      MOV      r5,r0
        0x08002a2e:    bf00        ..      NOP      
        0x08002a30:    4807        .H      LDR      r0,[pc,#28] ; [0x8002a50] = 0x20000000
        0x08002a32:    6800        .h      LDR      r0,[r0,#0]
        0x08002a34:    b118        ..      CBZ      r0,0x8002a3e ; test_gpio_all + 306
        0x08002a36:    4629        )F      MOV      r1,r5
        0x08002a38:    a020         .      ADR      r0,{pc}+0x84 ; 0x8002abc
        0x08002a3a:    f7fdffeb    ....    BL       __0printf$8 ; 0x8000a14
        0x08002a3e:    bf00        ..      NOP      
        0x08002a40:    e001        ..      B        0x8002a46 ; test_gpio_all + 314
        0x08002a42:    e7ff        ..      B        0x8002a44 ; test_gpio_all + 312
        0x08002a44:    bf00        ..      NOP      
        0x08002a46:    bf00        ..      NOP      
        0x08002a48:    2000        .       MOVS     r0,#0
        0x08002a4a:    e8bd81f0    ....    POP      {r4-r8,pc}
    $d
        0x08002a4e:    0000        ..      DCW    0
        0x08002a50:    20000000    ...     DCD    536870912
        0x08002a54:    08002b00    .+..    DCD    134228736
        0x08002a58:    65746e65    ente    DCD    1702129253
        0x08002a5c:    73252072    r %s    DCD    1931812978
        0x08002a60:    2064252d    -%d     DCD    543434029
        0x08002a64:    0000000a    ....    DCD    10
        0x08002a68:    200001dc    ...     DCD    536871388
        0x08002a6c:    65646e69    inde    DCD    1701080681
        0x08002a70:    25203a78    x: %    DCD    622869112
        0x08002a74:    00000a64    d...    DCD    2660
        0x08002a78:    756f7267    grou    DCD    1970238055
        0x08002a7c:    25203a70    p: %    DCD    622869104
        0x08002a80:    69203b64    d; i    DCD    1763720036
        0x08002a84:    7865646e    ndex    DCD    2019910766
        0x08002a88:    6425203a    : %d    DCD    1680154682
        0x08002a8c:    6962203b    ; bi    DCD    1768038459
        0x08002a90:    25203a74    t: %    DCD    622869108
        0x08002a94:    00000a64    d...    DCD    2660
        0x08002a98:    6b636974    tick    DCD    1801677172
        0x08002a9c:    6425203a    : %d    DCD    1680154682
        0x08002aa0:    0000000a    ....    DCD    10
        0x08002aa4:    756f7267    grou    DCD    1970238055
        0x08002aa8:    25203a70    p: %    DCD    622869104
        0x08002aac:    69203b64    d; i    DCD    1763720036
        0x08002ab0:    7865646e    ndex    DCD    2019910766
        0x08002ab4:    6425203a    : %d    DCD    1680154682
        0x08002ab8:    00000a3b    ;...    DCD    2619
        0x08002abc:    64616572    read    DCD    1684104562
        0x08002ac0:    74696220     bit    DCD    1953063456
        0x08002ac4:    0a642520     %d.    DCD    174335264
        0x08002ac8:    00000000    ....    DCD    0
    $t
    i.uart_putc
    uart_putc
        0x08002acc:    b510        ..      PUSH     {r4,lr}
        0x08002ace:    4604        .F      MOV      r4,r0
        0x08002ad0:    4621        !F      MOV      r1,r4
        0x08002ad2:    4802        .H      LDR      r0,[pc,#8] ; [0x8002adc] = 0x40013800
        0x08002ad4:    f7fdff7a    ..z.    BL       Usart_SendByte ; 0x80009cc
        0x08002ad8:    bd10        ..      POP      {r4,pc}
    $d
        0x08002ada:    0000        ..      DCW    0
        0x08002adc:    40013800    .8.@    DCD    1073821696
    $t
    i.uart_puts
    uart_puts
        0x08002ae0:    b510        ..      PUSH     {r4,lr}
        0x08002ae2:    4604        .F      MOV      r4,r0
        0x08002ae4:    4621        !F      MOV      r1,r4
        0x08002ae6:    4802        .H      LDR      r0,[pc,#8] ; [0x8002af0] = 0x40013800
        0x08002ae8:    f7fdff7f    ....    BL       Usart_SendString ; 0x80009ea
        0x08002aec:    bd10        ..      POP      {r4,pc}
    $d
        0x08002aee:    0000        ..      DCW    0
        0x08002af0:    40013800    .8.@    DCD    1073821696
    $t
    i.watchdog_reset
    watchdog_reset
        0x08002af4:    b510        ..      PUSH     {r4,lr}
        0x08002af6:    2101        .!      MOVS     r1,#1
        0x08002af8:    2004        .       MOVS     r0,#4
        0x08002afa:    f7fdfd83    ....    BL       IWDG_Config ; 0x8000604
        0x08002afe:    bd10        ..      POP      {r4,pc}
    $d.realdata
    .constdata
    __func__
        0x08002b00:    74736574    test    DCD    1953719668
        0x08002b04:    6970675f    _gpi    DCD    1768974175
        0x08002b08:    6c615f6f    o_al    DCD    1818320751
        0x08002b0c:    0000006c    l...    DCD    108
    .constdata
    os_maxtaskrun
        0x08002b10:    00000006    ....    DCD    6
    os_stackinfo
        0x08002b14:    01020800    ....    DCD    16910336
    os_rrobin
        0x08002b18:    00010005    ....    DCD    65541
    os_tickfreq
        0x08002b1c:    044aa200    ..J.    DCD    72000000
    os_tickus_i
        0x08002b20:    0048        H.      DCW    72
    os_tickus_f
        0x08002b22:    0000        ..      DCW    0
    os_trv
        0x08002b24:    0001193f    ?...    DCD    71999
    os_flags
        0x08002b28:    00000001    ....    DCD    1
    __tagsym$$used
    CMSIS_RTOS_API_Version
        0x08002b2c:    00010002    ....    DCD    65538
    __tagsym$$used
    CMSIS_RTOS_RTX_Version
        0x08002b30:    0004004e    N...    DCD    262222
    __tagsym$$used
    os_clockrate
        0x08002b34:    000003e8    ....    DCD    1000
    __tagsym$$used
    os_timernum
        0x08002b38:    00000000    ....    DCD    0
    mp_tcb_size
        0x08002b3c:    00000144    D...    DCD    324
    mp_stk_size
        0x08002b40:    00002810    .(..    DCD    10256
    os_stack_sz
        0x08002b44:    000010e8    ....    DCD    4328
    os_fifo_size
        0x08002b48:    00000010    ....    DCD    16
    os_thread_def_osTimerThread
        0x08002b4c:    08001699    ....    DCD    134223513
        0x08002b50:    00000002    ....    DCD    2
        0x08002b54:    00000001    ....    DCD    1
        0x08002b58:    000000c8    ....    DCD    200
    os_messageQ_def_osTimerMessageQ
        0x08002b5c:    00000004    ....    DCD    4
        0x08002b60:    20003d04    .=.     DCD    536886532
    mp_tmr_size
        0x08002b64:    0000        ..      DCW    0
    __func__
        0x08002b66:    736f        os      DCW    29551
        0x08002b68:    7272655f    _err    DCD    1920099679
        0x08002b6c:    726f        or      DCW    29295
        0x08002b6e:    00          .       DCB    0
    .constdata
    __ctype_table
        0x08002b6f:    00          .       DCB    0
        0x08002b70:    40404040    @@@@    DCD    1077952576
        0x08002b74:    40404040    @@@@    DCD    1077952576
        0x08002b78:    41414140    @AAA    DCD    1094795584
        0x08002b7c:    40404141    AA@@    DCD    1077952833
        0x08002b80:    40404040    @@@@    DCD    1077952576
        0x08002b84:    40404040    @@@@    DCD    1077952576
        0x08002b88:    40404040    @@@@    DCD    1077952576
        0x08002b8c:    40404040    @@@@    DCD    1077952576
        0x08002b90:    02020205    ....    DCD    33686021
        0x08002b94:    02020202    ....    DCD    33686018
        0x08002b98:    02020202    ....    DCD    33686018
        0x08002b9c:    02020202    ....    DCD    33686018
        0x08002ba0:    20202020            DCD    538976288
        0x08002ba4:    20202020            DCD    538976288
        0x08002ba8:    02022020      ..    DCD    33693728
        0x08002bac:    02020202    ....    DCD    33686018
        0x08002bb0:    90909002    ....    DCD    2425393154
        0x08002bb4:    10909090    ....    DCD    277909648
        0x08002bb8:    10101010    ....    DCD    269488144
        0x08002bbc:    10101010    ....    DCD    269488144
        0x08002bc0:    10101010    ....    DCD    269488144
        0x08002bc4:    10101010    ....    DCD    269488144
        0x08002bc8:    02101010    ....    DCD    34607120
        0x08002bcc:    02020202    ....    DCD    33686018
        0x08002bd0:    88888802    ....    DCD    2290649090
        0x08002bd4:    08888888    ....    DCD    143165576
        0x08002bd8:    08080808    ....    DCD    134744072
        0x08002bdc:    08080808    ....    DCD    134744072
        0x08002be0:    08080808    ....    DCD    134744072
        0x08002be4:    08080808    ....    DCD    134744072
        0x08002be8:    02080808    ....    DCD    34080776
        0x08002bec:    40020202    ...@    DCD    1073873410
    .constdata
    table
        0x08002bf0:    08002b70    p+..    DCD    134228848
    .conststring
        0x08002bf4:    706c6568    help    DCD    1886152040
        0x08002bf8:    20202020            DCD    538976288
        0x08002bfc:    20202020            DCD    538976288
        0x08002c00:    20202020            DCD    538976288
        0x08002c04:    20202020            DCD    538976288
        0x08002c08:    20202020            DCD    538976288
        0x08002c0c:    72702020      pr    DCD    1919950880
        0x08002c10:    20746e69    int     DCD    544501353
        0x08002c14:    20646d63    cmd     DCD    543452515
        0x08002c18:    6f666e69    info    DCD    1868983913
        0x08002c1c:    00000000    ....    DCD    0
        0x08002c20:    706c6568    help    DCD    1886152040
        0x08002c24:    00000000    ....    DCD    0
        0x08002c28:    706d7564    dump    DCD    1886221668
        0x08002c2c:    00000000    ....    DCD    0
        0x08002c30:    20202072    r       DCD    538976370
        0x08002c34:    615b2020      [a    DCD    1633361952
        0x08002c38:    5d726464    ddr]    DCD    1567777892
        0x08002c3c:    20202020            DCD    538976288
        0x08002c40:    20202020            DCD    538976288
        0x08002c44:    20202020            DCD    538976288
        0x08002c48:    65722020      re    DCD    1701978144
        0x08002c4c:    20206461    ad      DCD    538993761
        0x08002c50:    6e612020      an    DCD    1851858976
        0x08002c54:    64612079    y ad    DCD    1684086905
        0x08002c58:    00007264    dr..    DCD    29284
        0x08002c5c:    706d7564    dump    DCD    1886221668
        0x08002c60:    615b2020      [a    DCD    1633361952
        0x08002c64:    5d726464    ddr]    DCD    1567777892
        0x08002c68:    6f775b20     [wo    DCD    1870093088
        0x08002c6c:    6e5f6472    rd_n    DCD    1851745394
        0x08002c70:    205d6d75    um]     DCD    542993781
        0x08002c74:    75642020      du    DCD    1969496096
        0x08002c78:    2020706d    mp      DCD    538996845
        0x08002c7c:    6e612020      an    DCD    1851858976
        0x08002c80:    64612079    y ad    DCD    1684086905
        0x08002c84:    00007264    dr..    DCD    29284
        0x08002c88:    20202077    w       DCD    538976375
        0x08002c8c:    615b2020      [a    DCD    1633361952
        0x08002c90:    5d726464    ddr]    DCD    1567777892
        0x08002c94:    61645b20     [da    DCD    1633966880
        0x08002c98:    205d6174    ta]     DCD    542990708
        0x08002c9c:    20202020            DCD    538976288
        0x08002ca0:    72772020      wr    DCD    1920409632
        0x08002ca4:    20657469    ite     DCD    543519849
        0x08002ca8:    6e612020      an    DCD    1851858976
        0x08002cac:    64612079    y ad    DCD    1684086905
        0x08002cb0:    00007264    dr..    DCD    29284
        0x08002cb4:    20202078    x       DCD    538976376
        0x08002cb8:    615b2020      [a    DCD    1633361952
        0x08002cbc:    5d726464    ddr]    DCD    1567777892
        0x08002cc0:    20202020            DCD    538976288
        0x08002cc4:    20202020            DCD    538976288
        0x08002cc8:    20202020            DCD    538976288
        0x08002ccc:    78652020      ex    DCD    2019893280
        0x08002cd0:    74756365    ecut    DCD    1953850213
        0x08002cd4:    6e612065    e an    DCD    1851859045
        0x08002cd8:    64612079    y ad    DCD    1684086905
        0x08002cdc:    00007264    dr..    DCD    29284
        0x08002ce0:    00000072    r...    DCD    114
        0x08002ce4:    74737973    syst    DCD    1953724787
        0x08002ce8:    20747365    est     DCD    544502629
        0x08002cec:    646f6d5b    [mod    DCD    1685024091
        0x08002cf0:    5d656c75    ule]    DCD    1566927989
        0x08002cf4:    5d695b20     [i]    DCD    1567185696
        0x08002cf8:    20202009    .       DCD    538976265
        0x08002cfc:    79732020      sy    DCD    2037588000
        0x08002d00:    6d657473    stem    DCD    1835365491
        0x08002d04:    73657420     tes    DCD    1936028704
        0x08002d08:    00000074    t...    DCD    116
        0x08002d0c:    74737973    syst    DCD    1953724787
        0x08002d10:    00747365    est.    DCD    7631717
        0x08002d14:    00000077    w...    DCD    119
        0x08002d18:    00000078    x...    DCD    120
    .conststring
        0x08002d1c:    6f697067    gpio    DCD    1869181031
        0x08002d20:    00000000    ....    DCD    0
        0x08002d24:    00000000    ....    DCD    0
    Region$$Table$$Base
        0x08002d28:    08002d48    H-..    DCD    134229320
        0x08002d2c:    20000000    ...     DCD    536870912
        0x08002d30:    000000dc    ....    DCD    220
        0x08002d34:    08000a3c    <...    DCD    134220348
        0x08002d38:    08002e24    $...    DCD    134229540
        0x08002d3c:    200000dc    ...     DCD    536871132
        0x08002d40:    000040ac    .@..    DCD    16556
        0x08002d44:    08000a4c    L...    DCD    134220364
    Region$$Table$$Limit

** Section #2 'RW_IRAM1' (SHT_PROGBITS) [SHF_ALLOC + SHF_WRITE]
    Size   : 220 bytes (alignment 8)
    Address: 0x20000000


** Section #3 'RW_IRAM1' (SHT_NOBITS) [SHF_ALLOC + SHF_WRITE]
    Size   : 16556 bytes (alignment 8)
    Address: 0x200000dc


** Section #4 '.debug_abbrev' (SHT_PROGBITS)
    Size   : 1476 bytes


** Section #5 '.debug_frame' (SHT_PROGBITS)
    Size   : 4428 bytes


** Section #6 '.debug_info' (SHT_PROGBITS)
    Size   : 65480 bytes


** Section #7 '.debug_line' (SHT_PROGBITS)
    Size   : 21332 bytes


** Section #8 '.debug_loc' (SHT_PROGBITS)
    Size   : 6060 bytes


** Section #9 '.debug_macinfo' (SHT_PROGBITS)
    Size   : 245768 bytes


** Section #10 '.debug_pubnames' (SHT_PROGBITS)
    Size   : 5665 bytes


** Section #11 '.symtab' (SHT_SYMTAB)
    Size   : 13680 bytes (alignment 4)
    String table #12 '.strtab'
    Last local symbol no. 542


** Section #12 '.strtab' (SHT_STRTAB)
    Size   : 10436 bytes


** Section #13 '.note' (SHT_NOTE)
    Size   : 28 bytes (alignment 4)


** Section #14 '.comment' (SHT_PROGBITS)
    Size   : 41504 bytes


** Section #15 '.shstrtab' (SHT_STRTAB)
    Size   : 156 bytes


